ARM GAS  C:\Users\28212\AppData\Local\Temp\ccCLbx1d.s 			page 1


   1              		.cpu cortex-m7
   2              		.arch armv7e-m
   3              		.fpu fpv5-d16
   4              		.eabi_attribute 28, 1
   5              		.eabi_attribute 20, 1
   6              		.eabi_attribute 21, 1
   7              		.eabi_attribute 23, 3
   8              		.eabi_attribute 24, 1
   9              		.eabi_attribute 25, 1
  10              		.eabi_attribute 26, 1
  11              		.eabi_attribute 30, 1
  12              		.eabi_attribute 34, 1
  13              		.eabi_attribute 18, 4
  14              		.file	"syscalls.c"
  15              		.text
  16              	.Ltext0:
  17              		.cfi_sections	.debug_frame
  18              		.section	.text.initialise_monitor_handles,"ax",%progbits
  19              		.align	1
  20              		.global	initialise_monitor_handles
  21              		.syntax unified
  22              		.thumb
  23              		.thumb_func
  25              	initialise_monitor_handles:
  26              	.LFB25:
  27              		.file 1 "Core/Src/syscalls.c"
   1:Core/Src/syscalls.c **** /**
   2:Core/Src/syscalls.c ****  ******************************************************************************
   3:Core/Src/syscalls.c ****  * @file      syscalls.c
   4:Core/Src/syscalls.c ****  * @author    Auto-generated by STM32CubeMX
   5:Core/Src/syscalls.c ****  * @brief     Minimal System calls file
   6:Core/Src/syscalls.c ****  *
   7:Core/Src/syscalls.c ****  *            For more information about which c-functions
   8:Core/Src/syscalls.c ****  *            need which of these lowlevel functions
   9:Core/Src/syscalls.c ****  *            please consult the Newlib libc-manual
  10:Core/Src/syscalls.c ****  ******************************************************************************
  11:Core/Src/syscalls.c ****  * @attention
  12:Core/Src/syscalls.c ****  *
  13:Core/Src/syscalls.c ****  * Copyright (c) 2020-2024 STMicroelectronics.
  14:Core/Src/syscalls.c ****  * All rights reserved.
  15:Core/Src/syscalls.c ****  *
  16:Core/Src/syscalls.c ****  * This software is licensed under terms that can be found in the LICENSE file
  17:Core/Src/syscalls.c ****  * in the root directory of this software component.
  18:Core/Src/syscalls.c ****  * If no LICENSE file comes with this software, it is provided AS-IS.
  19:Core/Src/syscalls.c ****  *
  20:Core/Src/syscalls.c ****  ******************************************************************************
  21:Core/Src/syscalls.c ****  */
  22:Core/Src/syscalls.c **** 
  23:Core/Src/syscalls.c **** /* Includes */
  24:Core/Src/syscalls.c **** #include <sys/stat.h>
  25:Core/Src/syscalls.c **** #include <stdlib.h>
  26:Core/Src/syscalls.c **** #include <errno.h>
  27:Core/Src/syscalls.c **** #include <stdio.h>
  28:Core/Src/syscalls.c **** #include <signal.h>
  29:Core/Src/syscalls.c **** #include <time.h>
  30:Core/Src/syscalls.c **** #include <sys/time.h>
  31:Core/Src/syscalls.c **** #include <sys/times.h>
ARM GAS  C:\Users\28212\AppData\Local\Temp\ccCLbx1d.s 			page 2


  32:Core/Src/syscalls.c **** 
  33:Core/Src/syscalls.c **** 
  34:Core/Src/syscalls.c **** /* Variables */
  35:Core/Src/syscalls.c **** extern int __io_putchar(int ch) __attribute__((weak));
  36:Core/Src/syscalls.c **** extern int __io_getchar(void) __attribute__((weak));
  37:Core/Src/syscalls.c **** 
  38:Core/Src/syscalls.c **** 
  39:Core/Src/syscalls.c **** char *__env[1] = { 0 };
  40:Core/Src/syscalls.c **** char **environ = __env;
  41:Core/Src/syscalls.c **** 
  42:Core/Src/syscalls.c **** 
  43:Core/Src/syscalls.c **** /* Functions */
  44:Core/Src/syscalls.c **** void initialise_monitor_handles()
  45:Core/Src/syscalls.c **** {
  28              		.loc 1 45 1 view -0
  29              		.cfi_startproc
  30              		@ args = 0, pretend = 0, frame = 0
  31              		@ frame_needed = 0, uses_anonymous_args = 0
  32              		@ link register save eliminated.
  46:Core/Src/syscalls.c **** }
  33              		.loc 1 46 1 view .LVU1
  34 0000 7047     		bx	lr
  35              		.cfi_endproc
  36              	.LFE25:
  38              		.section	.text._getpid,"ax",%progbits
  39              		.align	1
  40              		.global	_getpid
  41              		.syntax unified
  42              		.thumb
  43              		.thumb_func
  45              	_getpid:
  46              	.LFB26:
  47:Core/Src/syscalls.c **** 
  48:Core/Src/syscalls.c **** int _getpid(void)
  49:Core/Src/syscalls.c **** {
  47              		.loc 1 49 1 view -0
  48              		.cfi_startproc
  49              		@ args = 0, pretend = 0, frame = 0
  50              		@ frame_needed = 0, uses_anonymous_args = 0
  51              		@ link register save eliminated.
  50:Core/Src/syscalls.c ****   return 1;
  52              		.loc 1 50 3 view .LVU3
  51:Core/Src/syscalls.c **** }
  53              		.loc 1 51 1 is_stmt 0 view .LVU4
  54 0000 0120     		movs	r0, #1
  55 0002 7047     		bx	lr
  56              		.cfi_endproc
  57              	.LFE26:
  59              		.section	.text._kill,"ax",%progbits
  60              		.align	1
  61              		.global	_kill
  62              		.syntax unified
  63              		.thumb
  64              		.thumb_func
  66              	_kill:
  67              	.LVL0:
  68              	.LFB27:
ARM GAS  C:\Users\28212\AppData\Local\Temp\ccCLbx1d.s 			page 3


  52:Core/Src/syscalls.c **** 
  53:Core/Src/syscalls.c **** int _kill(int pid, int sig)
  54:Core/Src/syscalls.c **** {
  69              		.loc 1 54 1 is_stmt 1 view -0
  70              		.cfi_startproc
  71              		@ args = 0, pretend = 0, frame = 0
  72              		@ frame_needed = 0, uses_anonymous_args = 0
  73              		.loc 1 54 1 is_stmt 0 view .LVU6
  74 0000 08B5     		push	{r3, lr}
  75              		.cfi_def_cfa_offset 8
  76              		.cfi_offset 3, -8
  77              		.cfi_offset 14, -4
  55:Core/Src/syscalls.c ****   (void)pid;
  78              		.loc 1 55 3 is_stmt 1 view .LVU7
  56:Core/Src/syscalls.c ****   (void)sig;
  79              		.loc 1 56 3 view .LVU8
  57:Core/Src/syscalls.c ****   errno = EINVAL;
  80              		.loc 1 57 3 view .LVU9
  81 0002 FFF7FEFF 		bl	__errno
  82              	.LVL1:
  83              		.loc 1 57 9 is_stmt 0 view .LVU10
  84 0006 1623     		movs	r3, #22
  85 0008 0360     		str	r3, [r0]
  58:Core/Src/syscalls.c ****   return -1;
  86              		.loc 1 58 3 is_stmt 1 view .LVU11
  59:Core/Src/syscalls.c **** }
  87              		.loc 1 59 1 is_stmt 0 view .LVU12
  88 000a 4FF0FF30 		mov	r0, #-1
  89 000e 08BD     		pop	{r3, pc}
  90              		.cfi_endproc
  91              	.LFE27:
  93              		.section	.text._exit,"ax",%progbits
  94              		.align	1
  95              		.global	_exit
  96              		.syntax unified
  97              		.thumb
  98              		.thumb_func
 100              	_exit:
 101              	.LVL2:
 102              	.LFB28:
  60:Core/Src/syscalls.c **** 
  61:Core/Src/syscalls.c **** void _exit (int status)
  62:Core/Src/syscalls.c **** {
 103              		.loc 1 62 1 is_stmt 1 view -0
 104              		.cfi_startproc
 105              		@ Volatile: function does not return.
 106              		@ args = 0, pretend = 0, frame = 0
 107              		@ frame_needed = 0, uses_anonymous_args = 0
 108              		.loc 1 62 1 is_stmt 0 view .LVU14
 109 0000 08B5     		push	{r3, lr}
 110              		.cfi_def_cfa_offset 8
 111              		.cfi_offset 3, -8
 112              		.cfi_offset 14, -4
  63:Core/Src/syscalls.c ****   _kill(status, -1);
 113              		.loc 1 63 3 is_stmt 1 view .LVU15
 114 0002 4FF0FF31 		mov	r1, #-1
 115 0006 FFF7FEFF 		bl	_kill
ARM GAS  C:\Users\28212\AppData\Local\Temp\ccCLbx1d.s 			page 4


 116              	.LVL3:
 117              	.L6:
  64:Core/Src/syscalls.c ****   while (1) {}    /* Make sure we hang here */
 118              		.loc 1 64 3 discriminator 1 view .LVU16
 119              		.loc 1 64 14 discriminator 1 view .LVU17
 120              		.loc 1 64 9 discriminator 1 view .LVU18
 121 000a FEE7     		b	.L6
 122              		.cfi_endproc
 123              	.LFE28:
 125              		.section	.text._read,"ax",%progbits
 126              		.align	1
 127              		.weak	_read
 128              		.syntax unified
 129              		.thumb
 130              		.thumb_func
 132              	_read:
 133              	.LVL4:
 134              	.LFB29:
  65:Core/Src/syscalls.c **** }
  66:Core/Src/syscalls.c **** 
  67:Core/Src/syscalls.c **** __attribute__((weak)) int _read(int file, char *ptr, int len)
  68:Core/Src/syscalls.c **** {
 135              		.loc 1 68 1 view -0
 136              		.cfi_startproc
 137              		@ args = 0, pretend = 0, frame = 0
 138              		@ frame_needed = 0, uses_anonymous_args = 0
 139              		.loc 1 68 1 is_stmt 0 view .LVU20
 140 0000 70B5     		push	{r4, r5, r6, lr}
 141              		.cfi_def_cfa_offset 16
 142              		.cfi_offset 4, -16
 143              		.cfi_offset 5, -12
 144              		.cfi_offset 6, -8
 145              		.cfi_offset 14, -4
 146 0002 0C46     		mov	r4, r1
 147 0004 1646     		mov	r6, r2
  69:Core/Src/syscalls.c ****   (void)file;
 148              		.loc 1 69 3 is_stmt 1 view .LVU21
  70:Core/Src/syscalls.c ****   int DataIdx;
 149              		.loc 1 70 3 view .LVU22
  71:Core/Src/syscalls.c **** 
  72:Core/Src/syscalls.c ****   for (DataIdx = 0; DataIdx < len; DataIdx++)
 150              		.loc 1 72 3 view .LVU23
 151              	.LVL5:
 152              		.loc 1 72 16 is_stmt 0 view .LVU24
 153 0006 0025     		movs	r5, #0
 154              		.loc 1 72 3 view .LVU25
 155 0008 06E0     		b	.L9
 156              	.LVL6:
 157              	.L10:
  73:Core/Src/syscalls.c ****   {
  74:Core/Src/syscalls.c ****     *ptr++ = __io_getchar();
 158              		.loc 1 74 5 is_stmt 1 discriminator 3 view .LVU26
 159              		.loc 1 74 14 is_stmt 0 discriminator 3 view .LVU27
 160 000a FFF7FEFF 		bl	__io_getchar
 161              	.LVL7:
 162              		.loc 1 74 9 discriminator 3 view .LVU28
 163 000e 2146     		mov	r1, r4
ARM GAS  C:\Users\28212\AppData\Local\Temp\ccCLbx1d.s 			page 5


 164              	.LVL8:
 165              		.loc 1 74 12 discriminator 3 view .LVU29
 166 0010 01F8010B 		strb	r0, [r1], #1
 167              	.LVL9:
  72:Core/Src/syscalls.c ****   {
 168              		.loc 1 72 36 is_stmt 1 discriminator 3 view .LVU30
  72:Core/Src/syscalls.c ****   {
 169              		.loc 1 72 43 is_stmt 0 discriminator 3 view .LVU31
 170 0014 0135     		adds	r5, r5, #1
 171              	.LVL10:
 172              		.loc 1 74 9 discriminator 3 view .LVU32
 173 0016 0C46     		mov	r4, r1
 174              	.LVL11:
 175              	.L9:
  72:Core/Src/syscalls.c ****   {
 176              		.loc 1 72 21 is_stmt 1 discriminator 1 view .LVU33
  72:Core/Src/syscalls.c ****   {
 177              		.loc 1 72 3 is_stmt 0 discriminator 1 view .LVU34
 178 0018 B542     		cmp	r5, r6
 179 001a F6DB     		blt	.L10
  75:Core/Src/syscalls.c ****   }
  76:Core/Src/syscalls.c **** 
  77:Core/Src/syscalls.c ****   return len;
 180              		.loc 1 77 3 is_stmt 1 view .LVU35
  78:Core/Src/syscalls.c **** }
 181              		.loc 1 78 1 is_stmt 0 view .LVU36
 182 001c 3046     		mov	r0, r6
 183 001e 70BD     		pop	{r4, r5, r6, pc}
 184              		.loc 1 78 1 view .LVU37
 185              		.cfi_endproc
 186              	.LFE29:
 188              		.section	.text._write,"ax",%progbits
 189              		.align	1
 190              		.weak	_write
 191              		.syntax unified
 192              		.thumb
 193              		.thumb_func
 195              	_write:
 196              	.LVL12:
 197              	.LFB30:
  79:Core/Src/syscalls.c **** 
  80:Core/Src/syscalls.c **** __attribute__((weak)) int _write(int file, char *ptr, int len)
  81:Core/Src/syscalls.c **** {
 198              		.loc 1 81 1 is_stmt 1 view -0
 199              		.cfi_startproc
 200              		@ args = 0, pretend = 0, frame = 0
 201              		@ frame_needed = 0, uses_anonymous_args = 0
 202              		.loc 1 81 1 is_stmt 0 view .LVU39
 203 0000 70B5     		push	{r4, r5, r6, lr}
 204              		.cfi_def_cfa_offset 16
 205              		.cfi_offset 4, -16
 206              		.cfi_offset 5, -12
 207              		.cfi_offset 6, -8
 208              		.cfi_offset 14, -4
 209 0002 0C46     		mov	r4, r1
 210 0004 1646     		mov	r6, r2
  82:Core/Src/syscalls.c ****   (void)file;
ARM GAS  C:\Users\28212\AppData\Local\Temp\ccCLbx1d.s 			page 6


 211              		.loc 1 82 3 is_stmt 1 view .LVU40
  83:Core/Src/syscalls.c ****   int DataIdx;
 212              		.loc 1 83 3 view .LVU41
  84:Core/Src/syscalls.c **** 
  85:Core/Src/syscalls.c ****   for (DataIdx = 0; DataIdx < len; DataIdx++)
 213              		.loc 1 85 3 view .LVU42
 214              	.LVL13:
 215              		.loc 1 85 16 is_stmt 0 view .LVU43
 216 0006 0025     		movs	r5, #0
 217              		.loc 1 85 3 view .LVU44
 218 0008 04E0     		b	.L13
 219              	.LVL14:
 220              	.L14:
  86:Core/Src/syscalls.c ****   {
  87:Core/Src/syscalls.c ****     __io_putchar(*ptr++);
 221              		.loc 1 87 5 is_stmt 1 discriminator 3 view .LVU45
 222              		.loc 1 87 5 is_stmt 0 discriminator 3 view .LVU46
 223 000a 14F8010B 		ldrb	r0, [r4], #1	@ zero_extendqisi2
 224              	.LVL15:
 225              		.loc 1 87 5 discriminator 3 view .LVU47
 226 000e FFF7FEFF 		bl	__io_putchar
 227              	.LVL16:
  85:Core/Src/syscalls.c ****   {
 228              		.loc 1 85 36 is_stmt 1 discriminator 3 view .LVU48
  85:Core/Src/syscalls.c ****   {
 229              		.loc 1 85 43 is_stmt 0 discriminator 3 view .LVU49
 230 0012 0135     		adds	r5, r5, #1
 231              	.LVL17:
 232              	.L13:
  85:Core/Src/syscalls.c ****   {
 233              		.loc 1 85 21 is_stmt 1 discriminator 1 view .LVU50
  85:Core/Src/syscalls.c ****   {
 234              		.loc 1 85 3 is_stmt 0 discriminator 1 view .LVU51
 235 0014 B542     		cmp	r5, r6
 236 0016 F8DB     		blt	.L14
  88:Core/Src/syscalls.c ****   }
  89:Core/Src/syscalls.c ****   return len;
 237              		.loc 1 89 3 is_stmt 1 view .LVU52
  90:Core/Src/syscalls.c **** }
 238              		.loc 1 90 1 is_stmt 0 view .LVU53
 239 0018 3046     		mov	r0, r6
 240 001a 70BD     		pop	{r4, r5, r6, pc}
 241              		.loc 1 90 1 view .LVU54
 242              		.cfi_endproc
 243              	.LFE30:
 245              		.section	.text._close,"ax",%progbits
 246              		.align	1
 247              		.global	_close
 248              		.syntax unified
 249              		.thumb
 250              		.thumb_func
 252              	_close:
 253              	.LVL18:
 254              	.LFB31:
  91:Core/Src/syscalls.c **** 
  92:Core/Src/syscalls.c **** int _close(int file)
  93:Core/Src/syscalls.c **** {
ARM GAS  C:\Users\28212\AppData\Local\Temp\ccCLbx1d.s 			page 7


 255              		.loc 1 93 1 is_stmt 1 view -0
 256              		.cfi_startproc
 257              		@ args = 0, pretend = 0, frame = 0
 258              		@ frame_needed = 0, uses_anonymous_args = 0
 259              		@ link register save eliminated.
  94:Core/Src/syscalls.c ****   (void)file;
 260              		.loc 1 94 3 view .LVU56
  95:Core/Src/syscalls.c ****   return -1;
 261              		.loc 1 95 3 view .LVU57
  96:Core/Src/syscalls.c **** }
 262              		.loc 1 96 1 is_stmt 0 view .LVU58
 263 0000 4FF0FF30 		mov	r0, #-1
 264              	.LVL19:
 265              		.loc 1 96 1 view .LVU59
 266 0004 7047     		bx	lr
 267              		.cfi_endproc
 268              	.LFE31:
 270              		.section	.text._fstat,"ax",%progbits
 271              		.align	1
 272              		.global	_fstat
 273              		.syntax unified
 274              		.thumb
 275              		.thumb_func
 277              	_fstat:
 278              	.LVL20:
 279              	.LFB32:
  97:Core/Src/syscalls.c **** 
  98:Core/Src/syscalls.c **** 
  99:Core/Src/syscalls.c **** int _fstat(int file, struct stat *st)
 100:Core/Src/syscalls.c **** {
 280              		.loc 1 100 1 is_stmt 1 view -0
 281              		.cfi_startproc
 282              		@ args = 0, pretend = 0, frame = 0
 283              		@ frame_needed = 0, uses_anonymous_args = 0
 284              		@ link register save eliminated.
 101:Core/Src/syscalls.c ****   (void)file;
 285              		.loc 1 101 3 view .LVU61
 102:Core/Src/syscalls.c ****   st->st_mode = S_IFCHR;
 286              		.loc 1 102 3 view .LVU62
 287              		.loc 1 102 15 is_stmt 0 view .LVU63
 288 0000 4FF40053 		mov	r3, #8192
 289 0004 4B60     		str	r3, [r1, #4]
 103:Core/Src/syscalls.c ****   return 0;
 290              		.loc 1 103 3 is_stmt 1 view .LVU64
 104:Core/Src/syscalls.c **** }
 291              		.loc 1 104 1 is_stmt 0 view .LVU65
 292 0006 0020     		movs	r0, #0
 293              	.LVL21:
 294              		.loc 1 104 1 view .LVU66
 295 0008 7047     		bx	lr
 296              		.cfi_endproc
 297              	.LFE32:
 299              		.section	.text._isatty,"ax",%progbits
 300              		.align	1
 301              		.global	_isatty
 302              		.syntax unified
 303              		.thumb
ARM GAS  C:\Users\28212\AppData\Local\Temp\ccCLbx1d.s 			page 8


 304              		.thumb_func
 306              	_isatty:
 307              	.LVL22:
 308              	.LFB33:
 105:Core/Src/syscalls.c **** 
 106:Core/Src/syscalls.c **** int _isatty(int file)
 107:Core/Src/syscalls.c **** {
 309              		.loc 1 107 1 is_stmt 1 view -0
 310              		.cfi_startproc
 311              		@ args = 0, pretend = 0, frame = 0
 312              		@ frame_needed = 0, uses_anonymous_args = 0
 313              		@ link register save eliminated.
 108:Core/Src/syscalls.c ****   (void)file;
 314              		.loc 1 108 3 view .LVU68
 109:Core/Src/syscalls.c ****   return 1;
 315              		.loc 1 109 3 view .LVU69
 110:Core/Src/syscalls.c **** }
 316              		.loc 1 110 1 is_stmt 0 view .LVU70
 317 0000 0120     		movs	r0, #1
 318              	.LVL23:
 319              		.loc 1 110 1 view .LVU71
 320 0002 7047     		bx	lr
 321              		.cfi_endproc
 322              	.LFE33:
 324              		.section	.text._lseek,"ax",%progbits
 325              		.align	1
 326              		.global	_lseek
 327              		.syntax unified
 328              		.thumb
 329              		.thumb_func
 331              	_lseek:
 332              	.LVL24:
 333              	.LFB34:
 111:Core/Src/syscalls.c **** 
 112:Core/Src/syscalls.c **** int _lseek(int file, int ptr, int dir)
 113:Core/Src/syscalls.c **** {
 334              		.loc 1 113 1 is_stmt 1 view -0
 335              		.cfi_startproc
 336              		@ args = 0, pretend = 0, frame = 0
 337              		@ frame_needed = 0, uses_anonymous_args = 0
 338              		@ link register save eliminated.
 114:Core/Src/syscalls.c ****   (void)file;
 339              		.loc 1 114 3 view .LVU73
 115:Core/Src/syscalls.c ****   (void)ptr;
 340              		.loc 1 115 3 view .LVU74
 116:Core/Src/syscalls.c ****   (void)dir;
 341              		.loc 1 116 3 view .LVU75
 117:Core/Src/syscalls.c ****   return 0;
 342              		.loc 1 117 3 view .LVU76
 118:Core/Src/syscalls.c **** }
 343              		.loc 1 118 1 is_stmt 0 view .LVU77
 344 0000 0020     		movs	r0, #0
 345              	.LVL25:
 346              		.loc 1 118 1 view .LVU78
 347 0002 7047     		bx	lr
 348              		.cfi_endproc
 349              	.LFE34:
ARM GAS  C:\Users\28212\AppData\Local\Temp\ccCLbx1d.s 			page 9


 351              		.section	.text._open,"ax",%progbits
 352              		.align	1
 353              		.global	_open
 354              		.syntax unified
 355              		.thumb
 356              		.thumb_func
 358              	_open:
 359              	.LVL26:
 360              	.LFB35:
 119:Core/Src/syscalls.c **** 
 120:Core/Src/syscalls.c **** int _open(char *path, int flags, ...)
 121:Core/Src/syscalls.c **** {
 361              		.loc 1 121 1 is_stmt 1 view -0
 362              		.cfi_startproc
 363              		@ args = 4, pretend = 12, frame = 0
 364              		@ frame_needed = 0, uses_anonymous_args = 1
 365              		@ link register save eliminated.
 366              		.loc 1 121 1 is_stmt 0 view .LVU80
 367 0000 0EB4     		push	{r1, r2, r3}
 368              		.cfi_def_cfa_offset 12
 369              		.cfi_offset 1, -12
 370              		.cfi_offset 2, -8
 371              		.cfi_offset 3, -4
 122:Core/Src/syscalls.c ****   (void)path;
 372              		.loc 1 122 3 is_stmt 1 view .LVU81
 123:Core/Src/syscalls.c ****   (void)flags;
 373              		.loc 1 123 3 view .LVU82
 124:Core/Src/syscalls.c ****   /* Pretend like we always fail */
 125:Core/Src/syscalls.c ****   return -1;
 374              		.loc 1 125 3 view .LVU83
 126:Core/Src/syscalls.c **** }
 375              		.loc 1 126 1 is_stmt 0 view .LVU84
 376 0002 4FF0FF30 		mov	r0, #-1
 377              	.LVL27:
 378              		.loc 1 126 1 view .LVU85
 379 0006 03B0     		add	sp, sp, #12
 380              		.cfi_restore 3
 381              		.cfi_restore 2
 382              		.cfi_restore 1
 383              		.cfi_def_cfa_offset 0
 384 0008 7047     		bx	lr
 385              		.cfi_endproc
 386              	.LFE35:
 388              		.section	.text._wait,"ax",%progbits
 389              		.align	1
 390              		.global	_wait
 391              		.syntax unified
 392              		.thumb
 393              		.thumb_func
 395              	_wait:
 396              	.LVL28:
 397              	.LFB36:
 127:Core/Src/syscalls.c **** 
 128:Core/Src/syscalls.c **** int _wait(int *status)
 129:Core/Src/syscalls.c **** {
 398              		.loc 1 129 1 is_stmt 1 view -0
 399              		.cfi_startproc
ARM GAS  C:\Users\28212\AppData\Local\Temp\ccCLbx1d.s 			page 10


 400              		@ args = 0, pretend = 0, frame = 0
 401              		@ frame_needed = 0, uses_anonymous_args = 0
 402              		.loc 1 129 1 is_stmt 0 view .LVU87
 403 0000 08B5     		push	{r3, lr}
 404              		.cfi_def_cfa_offset 8
 405              		.cfi_offset 3, -8
 406              		.cfi_offset 14, -4
 130:Core/Src/syscalls.c ****   (void)status;
 407              		.loc 1 130 3 is_stmt 1 view .LVU88
 131:Core/Src/syscalls.c ****   errno = ECHILD;
 408              		.loc 1 131 3 view .LVU89
 409 0002 FFF7FEFF 		bl	__errno
 410              	.LVL29:
 411              		.loc 1 131 9 is_stmt 0 view .LVU90
 412 0006 0A23     		movs	r3, #10
 413 0008 0360     		str	r3, [r0]
 132:Core/Src/syscalls.c ****   return -1;
 414              		.loc 1 132 3 is_stmt 1 view .LVU91
 133:Core/Src/syscalls.c **** }
 415              		.loc 1 133 1 is_stmt 0 view .LVU92
 416 000a 4FF0FF30 		mov	r0, #-1
 417 000e 08BD     		pop	{r3, pc}
 418              		.cfi_endproc
 419              	.LFE36:
 421              		.section	.text._unlink,"ax",%progbits
 422              		.align	1
 423              		.global	_unlink
 424              		.syntax unified
 425              		.thumb
 426              		.thumb_func
 428              	_unlink:
 429              	.LVL30:
 430              	.LFB37:
 134:Core/Src/syscalls.c **** 
 135:Core/Src/syscalls.c **** int _unlink(char *name)
 136:Core/Src/syscalls.c **** {
 431              		.loc 1 136 1 is_stmt 1 view -0
 432              		.cfi_startproc
 433              		@ args = 0, pretend = 0, frame = 0
 434              		@ frame_needed = 0, uses_anonymous_args = 0
 435              		.loc 1 136 1 is_stmt 0 view .LVU94
 436 0000 08B5     		push	{r3, lr}
 437              		.cfi_def_cfa_offset 8
 438              		.cfi_offset 3, -8
 439              		.cfi_offset 14, -4
 137:Core/Src/syscalls.c ****   (void)name;
 440              		.loc 1 137 3 is_stmt 1 view .LVU95
 138:Core/Src/syscalls.c ****   errno = ENOENT;
 441              		.loc 1 138 3 view .LVU96
 442 0002 FFF7FEFF 		bl	__errno
 443              	.LVL31:
 444              		.loc 1 138 9 is_stmt 0 view .LVU97
 445 0006 0223     		movs	r3, #2
 446 0008 0360     		str	r3, [r0]
 139:Core/Src/syscalls.c ****   return -1;
 447              		.loc 1 139 3 is_stmt 1 view .LVU98
 140:Core/Src/syscalls.c **** }
ARM GAS  C:\Users\28212\AppData\Local\Temp\ccCLbx1d.s 			page 11


 448              		.loc 1 140 1 is_stmt 0 view .LVU99
 449 000a 4FF0FF30 		mov	r0, #-1
 450 000e 08BD     		pop	{r3, pc}
 451              		.cfi_endproc
 452              	.LFE37:
 454              		.section	.text._times,"ax",%progbits
 455              		.align	1
 456              		.global	_times
 457              		.syntax unified
 458              		.thumb
 459              		.thumb_func
 461              	_times:
 462              	.LVL32:
 463              	.LFB38:
 141:Core/Src/syscalls.c **** 
 142:Core/Src/syscalls.c **** int _times(struct tms *buf)
 143:Core/Src/syscalls.c **** {
 464              		.loc 1 143 1 is_stmt 1 view -0
 465              		.cfi_startproc
 466              		@ args = 0, pretend = 0, frame = 0
 467              		@ frame_needed = 0, uses_anonymous_args = 0
 468              		@ link register save eliminated.
 144:Core/Src/syscalls.c ****   (void)buf;
 469              		.loc 1 144 3 view .LVU101
 145:Core/Src/syscalls.c ****   return -1;
 470              		.loc 1 145 3 view .LVU102
 146:Core/Src/syscalls.c **** }
 471              		.loc 1 146 1 is_stmt 0 view .LVU103
 472 0000 4FF0FF30 		mov	r0, #-1
 473              	.LVL33:
 474              		.loc 1 146 1 view .LVU104
 475 0004 7047     		bx	lr
 476              		.cfi_endproc
 477              	.LFE38:
 479              		.section	.text._stat,"ax",%progbits
 480              		.align	1
 481              		.global	_stat
 482              		.syntax unified
 483              		.thumb
 484              		.thumb_func
 486              	_stat:
 487              	.LVL34:
 488              	.LFB39:
 147:Core/Src/syscalls.c **** 
 148:Core/Src/syscalls.c **** int _stat(char *file, struct stat *st)
 149:Core/Src/syscalls.c **** {
 489              		.loc 1 149 1 is_stmt 1 view -0
 490              		.cfi_startproc
 491              		@ args = 0, pretend = 0, frame = 0
 492              		@ frame_needed = 0, uses_anonymous_args = 0
 493              		@ link register save eliminated.
 150:Core/Src/syscalls.c ****   (void)file;
 494              		.loc 1 150 3 view .LVU106
 151:Core/Src/syscalls.c ****   st->st_mode = S_IFCHR;
 495              		.loc 1 151 3 view .LVU107
 496              		.loc 1 151 15 is_stmt 0 view .LVU108
 497 0000 4FF40053 		mov	r3, #8192
ARM GAS  C:\Users\28212\AppData\Local\Temp\ccCLbx1d.s 			page 12


 498 0004 4B60     		str	r3, [r1, #4]
 152:Core/Src/syscalls.c ****   return 0;
 499              		.loc 1 152 3 is_stmt 1 view .LVU109
 153:Core/Src/syscalls.c **** }
 500              		.loc 1 153 1 is_stmt 0 view .LVU110
 501 0006 0020     		movs	r0, #0
 502              	.LVL35:
 503              		.loc 1 153 1 view .LVU111
 504 0008 7047     		bx	lr
 505              		.cfi_endproc
 506              	.LFE39:
 508              		.section	.text._link,"ax",%progbits
 509              		.align	1
 510              		.global	_link
 511              		.syntax unified
 512              		.thumb
 513              		.thumb_func
 515              	_link:
 516              	.LVL36:
 517              	.LFB40:
 154:Core/Src/syscalls.c **** 
 155:Core/Src/syscalls.c **** int _link(char *old, char *new)
 156:Core/Src/syscalls.c **** {
 518              		.loc 1 156 1 is_stmt 1 view -0
 519              		.cfi_startproc
 520              		@ args = 0, pretend = 0, frame = 0
 521              		@ frame_needed = 0, uses_anonymous_args = 0
 522              		.loc 1 156 1 is_stmt 0 view .LVU113
 523 0000 08B5     		push	{r3, lr}
 524              		.cfi_def_cfa_offset 8
 525              		.cfi_offset 3, -8
 526              		.cfi_offset 14, -4
 157:Core/Src/syscalls.c ****   (void)old;
 527              		.loc 1 157 3 is_stmt 1 view .LVU114
 158:Core/Src/syscalls.c ****   (void)new;
 528              		.loc 1 158 3 view .LVU115
 159:Core/Src/syscalls.c ****   errno = EMLINK;
 529              		.loc 1 159 3 view .LVU116
 530 0002 FFF7FEFF 		bl	__errno
 531              	.LVL37:
 532              		.loc 1 159 9 is_stmt 0 view .LVU117
 533 0006 1F23     		movs	r3, #31
 534 0008 0360     		str	r3, [r0]
 160:Core/Src/syscalls.c ****   return -1;
 535              		.loc 1 160 3 is_stmt 1 view .LVU118
 161:Core/Src/syscalls.c **** }
 536              		.loc 1 161 1 is_stmt 0 view .LVU119
 537 000a 4FF0FF30 		mov	r0, #-1
 538 000e 08BD     		pop	{r3, pc}
 539              		.cfi_endproc
 540              	.LFE40:
 542              		.section	.text._fork,"ax",%progbits
 543              		.align	1
 544              		.global	_fork
 545              		.syntax unified
 546              		.thumb
 547              		.thumb_func
ARM GAS  C:\Users\28212\AppData\Local\Temp\ccCLbx1d.s 			page 13


 549              	_fork:
 550              	.LFB41:
 162:Core/Src/syscalls.c **** 
 163:Core/Src/syscalls.c **** int _fork(void)
 164:Core/Src/syscalls.c **** {
 551              		.loc 1 164 1 is_stmt 1 view -0
 552              		.cfi_startproc
 553              		@ args = 0, pretend = 0, frame = 0
 554              		@ frame_needed = 0, uses_anonymous_args = 0
 555 0000 08B5     		push	{r3, lr}
 556              		.cfi_def_cfa_offset 8
 557              		.cfi_offset 3, -8
 558              		.cfi_offset 14, -4
 165:Core/Src/syscalls.c ****   errno = EAGAIN;
 559              		.loc 1 165 3 view .LVU121
 560 0002 FFF7FEFF 		bl	__errno
 561              	.LVL38:
 562              		.loc 1 165 9 is_stmt 0 view .LVU122
 563 0006 0B23     		movs	r3, #11
 564 0008 0360     		str	r3, [r0]
 166:Core/Src/syscalls.c ****   return -1;
 565              		.loc 1 166 3 is_stmt 1 view .LVU123
 167:Core/Src/syscalls.c **** }
 566              		.loc 1 167 1 is_stmt 0 view .LVU124
 567 000a 4FF0FF30 		mov	r0, #-1
 568 000e 08BD     		pop	{r3, pc}
 569              		.cfi_endproc
 570              	.LFE41:
 572              		.section	.text._execve,"ax",%progbits
 573              		.align	1
 574              		.global	_execve
 575              		.syntax unified
 576              		.thumb
 577              		.thumb_func
 579              	_execve:
 580              	.LVL39:
 581              	.LFB42:
 168:Core/Src/syscalls.c **** 
 169:Core/Src/syscalls.c **** int _execve(char *name, char **argv, char **env)
 170:Core/Src/syscalls.c **** {
 582              		.loc 1 170 1 is_stmt 1 view -0
 583              		.cfi_startproc
 584              		@ args = 0, pretend = 0, frame = 0
 585              		@ frame_needed = 0, uses_anonymous_args = 0
 586              		.loc 1 170 1 is_stmt 0 view .LVU126
 587 0000 08B5     		push	{r3, lr}
 588              		.cfi_def_cfa_offset 8
 589              		.cfi_offset 3, -8
 590              		.cfi_offset 14, -4
 171:Core/Src/syscalls.c ****   (void)name;
 591              		.loc 1 171 3 is_stmt 1 view .LVU127
 172:Core/Src/syscalls.c ****   (void)argv;
 592              		.loc 1 172 3 view .LVU128
 173:Core/Src/syscalls.c ****   (void)env;
 593              		.loc 1 173 3 view .LVU129
 174:Core/Src/syscalls.c ****   errno = ENOMEM;
 594              		.loc 1 174 3 view .LVU130
ARM GAS  C:\Users\28212\AppData\Local\Temp\ccCLbx1d.s 			page 14


 595 0002 FFF7FEFF 		bl	__errno
 596              	.LVL40:
 597              		.loc 1 174 9 is_stmt 0 view .LVU131
 598 0006 0C23     		movs	r3, #12
 599 0008 0360     		str	r3, [r0]
 175:Core/Src/syscalls.c ****   return -1;
 600              		.loc 1 175 3 is_stmt 1 view .LVU132
 176:Core/Src/syscalls.c **** }
 601              		.loc 1 176 1 is_stmt 0 view .LVU133
 602 000a 4FF0FF30 		mov	r0, #-1
 603 000e 08BD     		pop	{r3, pc}
 604              		.cfi_endproc
 605              	.LFE42:
 607              		.global	environ
 608              		.global	__env
 609              		.section	.bss.__env,"aw",%nobits
 610              		.align	2
 613              	__env:
 614 0000 00000000 		.space	4
 615              		.section	.data.environ,"aw"
 616              		.align	2
 619              	environ:
 620 0000 00000000 		.word	__env
 621              		.weak	__io_putchar
 622              		.weak	__io_getchar
 623              		.text
 624              	.Letext0:
 625              		.file 2 "d:\\gcc-arm-none-eabi-10.3-2021.10\\arm-none-eabi\\include\\machine\\_default_types.h"
 626              		.file 3 "d:\\gcc-arm-none-eabi-10.3-2021.10\\arm-none-eabi\\include\\sys\\_types.h"
 627              		.file 4 "d:\\gcc-arm-none-eabi-10.3-2021.10\\arm-none-eabi\\include\\sys\\_timeval.h"
 628              		.file 5 "d:\\gcc-arm-none-eabi-10.3-2021.10\\arm-none-eabi\\include\\sys\\_timespec.h"
 629              		.file 6 "d:\\gcc-arm-none-eabi-10.3-2021.10\\arm-none-eabi\\include\\sys\\types.h"
 630              		.file 7 "d:\\gcc-arm-none-eabi-10.3-2021.10\\arm-none-eabi\\include\\sys\\stat.h"
 631              		.file 8 "d:\\gcc-arm-none-eabi-10.3-2021.10\\arm-none-eabi\\include\\sys\\times.h"
 632              		.file 9 "d:\\gcc-arm-none-eabi-10.3-2021.10\\arm-none-eabi\\include\\sys\\errno.h"
ARM GAS  C:\Users\28212\AppData\Local\Temp\ccCLbx1d.s 			page 15

