ARM GAS  C:\Users\28212\AppData\Local\Temp\ccBXSG2d.s 			page 1


   1              		.cpu cortex-m7
   2              		.arch armv7e-m
   3              		.fpu fpv5-d16
   4              		.eabi_attribute 28, 1	@ Tag_ABI_VFP_args
   5              		.eabi_attribute 20, 1	@ Tag_ABI_FP_denormal
   6              		.eabi_attribute 21, 1	@ Tag_ABI_FP_exceptions
   7              		.eabi_attribute 23, 3	@ Tag_ABI_FP_number_model
   8              		.eabi_attribute 24, 1	@ Tag_ABI_align8_needed
   9              		.eabi_attribute 25, 1	@ Tag_ABI_align8_preserved
  10              		.eabi_attribute 26, 1	@ Tag_ABI_enum_size
  11              		.eabi_attribute 30, 1	@ Tag_ABI_optimization_goals
  12              		.eabi_attribute 34, 1	@ Tag_CPU_unaligned_access
  13              		.eabi_attribute 18, 4	@ Tag_ABI_PCS_wchar_t
  14              		.file	"Alg_PID.cpp"
  15              	@ GNU C++17 (GNU Arm Embedded Toolchain 10.3-2021.10) version 10.3.1 20210824 (release) (arm-none-e
  16              	@	compiled by GNU C version 7.3-win32 20180312, GMP version 6.1.0, MPFR version 3.1.4, MPC version 
  17              	
  18              	@ GGC heuristics: --param ggc-min-expand=100 --param ggc-min-heapsize=131072
  19              	@ options passed:  -I Core/Inc -I Drivers/STM32H7xx_HAL_Driver/Inc
  20              	@ -I Drivers/STM32H7xx_HAL_Driver/Inc/Legacy
  21              	@ -I Middlewares/Third_Party/FreeRTOS/Source/include
  22              	@ -I Middlewares/Third_Party/FreeRTOS/Source/CMSIS_RTOS
  23              	@ -I Middlewares/Third_Party/FreeRTOS/Source/portable/GCC/ARM_CM4F
  24              	@ -I Drivers/CMSIS/Device/ST/STM32H7xx/Include -I Drivers/CMSIS/Include
  25              	@ -I Middlewares/ST/ARM/DSP/Inc -I Core/Inc -I Yellow_code
  26              	@ -imultilib thumb/v7e-m+dp/hard
  27              	@ -iprefix d:\gcc-arm-none-eabi-10.3-2021.10\bin\../lib/gcc/arm-none-eabi/10.3.1/
  28              	@ -isysroot d:\gcc-arm-none-eabi-10.3-2021.10\bin\../arm-none-eabi
  29              	@ -MMD build/Alg_PID.d -MF build/Alg_PID.d -MP -MQ build/Alg_PID.o
  30              	@ -D__USES_INITFINI__ -D USE_HAL_DRIVER -D STM32H723xx
  31              	@ Yellow_code/Alg_PID.cpp -mcpu=cortex-m7 -mthumb -mfpu=fpv5-d16
  32              	@ -mfloat-abi=hard -mlibarch=armv7e-m+fp.dp -march=armv7e-m+fp.dp
  33              	@ -auxbase-strip build/Alg_PID.o -g -gdwarf-2 -g -ggdb3 -Og -Wall
  34              	@ -std=c++17 -fno-rtti -fno-exceptions -fverbose-asm -fdata-sections
  35              	@ -ffunction-sections -fpermissive
  36              	@ options enabled:  -faggressive-loop-optimizations -fallocation-dce
  37              	@ -fauto-inc-dec -fcombine-stack-adjustments -fcompare-elim
  38              	@ -fcprop-registers -fdata-sections -fdefer-pop
  39              	@ -fdelete-null-pointer-checks -fdwarf2-cfi-asm -fearly-inlining
  40              	@ -feliminate-unused-debug-symbols -feliminate-unused-debug-types
  41              	@ -fforward-propagate -ffp-int-builtin-inexact -ffunction-cse
  42              	@ -ffunction-sections -fgcse-lm -fgnu-unique -fguess-branch-probability
  43              	@ -fident -finline -finline-atomics -fipa-profile -fipa-pure-const
  44              	@ -fipa-reference -fipa-reference-addressable -fipa-stack-alignment
  45              	@ -fira-hoist-pressure -fira-share-save-slots -fira-share-spill-slots
  46              	@ -fivopts -fkeep-static-consts -fleading-underscore -flifetime-dse
  47              	@ -fmath-errno -fmerge-constants -fmerge-debug-strings -fomit-frame-pointer
  48              	@ -fpeephole -fplt -fprefetch-loop-arrays -freg-struct-return
  49              	@ -freorder-blocks -fsched-critical-path-heuristic
  50              	@ -fsched-dep-count-heuristic -fsched-group-heuristic -fsched-interblock
  51              	@ -fsched-last-insn-heuristic -fsched-pressure -fsched-rank-heuristic
  52              	@ -fsched-spec -fsched-spec-insn-heuristic -fsched-stalled-insns-dep
  53              	@ -fsection-anchors -fsemantic-interposition -fshow-column -fshrink-wrap
  54              	@ -fshrink-wrap-separate -fsigned-zeros -fsplit-ivs-in-unroller
  55              	@ -fsplit-wide-types -fssa-backprop -fstdarg-opt
  56              	@ -fstrict-volatile-bitfields -fsync-libcalls -ftoplevel-reorder
  57              	@ -ftrapping-math -ftree-builtin-call-dce -ftree-ccp -ftree-ch
ARM GAS  C:\Users\28212\AppData\Local\Temp\ccBXSG2d.s 			page 2


  58              	@ -ftree-coalesce-vars -ftree-copy-prop -ftree-cselim -ftree-dce
  59              	@ -ftree-dominator-opts -ftree-forwprop -ftree-fre -ftree-loop-if-convert
  60              	@ -ftree-loop-im -ftree-loop-ivcanon -ftree-loop-optimize
  61              	@ -ftree-parallelize-loops= -ftree-phiprop -ftree-reassoc -ftree-scev-cprop
  62              	@ -ftree-sink -ftree-slsr -ftree-ter -funit-at-a-time -fvar-tracking
  63              	@ -fvar-tracking-assignments -fverbose-asm -fzero-initialized-in-bss
  64              	@ -masm-syntax-unified -mbe32 -mlittle-endian -mpic-data-is-text-relative
  65              	@ -msched-prolog -mthumb -munaligned-access -mvectorize-with-neon-quad
  66              	
  67              		.text
  68              	.Ltext0:
  69              		.cfi_sections	.debug_frame
  70              		.section	.text._ZN9Algorithm9pid_alg_cC2Ev,"ax",%progbits
  71              		.align	1
  72              		.global	_ZN9Algorithm9pid_alg_cC2Ev
  73              		.syntax unified
  74              		.thumb
  75              		.thumb_func
  76              		.type	_ZN9Algorithm9pid_alg_cC2Ev, %function
  77              	_ZN9Algorithm9pid_alg_cC2Ev:
  78              	.LVL0:
  79              	.LFB11:
  80              		.file 1 "Yellow_code/Alg_PID.cpp"
   1:Yellow_code/Alg_PID.cpp **** /**
   2:Yellow_code/Alg_PID.cpp ****  * @file Alg_PID.cpp
   3:Yellow_code/Alg_PID.cpp ****  * @brief PID控制算法
   4:Yellow_code/Alg_PID.cpp ****  *
   5:Yellow_code/Alg_PID.cpp ****  * @version 2.1         
   6:Yellow_code/Alg_PID.cpp ****  * @date 2024-9-16  1.0 加入了梯形积分
   7:Yellow_code/Alg_PID.cpp ****  *       2024-10-3  1.1 实际使用发现还是使用初始化函数方便一点
   8:Yellow_code/Alg_PID.cpp ****  *       2024-10-22 2.0 并未发现野指针的问题（我觉得没有），修正了变积分和
   9:Yellow_code/Alg_PID.cpp ****  *       2024-10-28 2.1 加入前馈PID控制和无参构造函数
  10:Yellow_code/Alg_PID.cpp ****  * @example
  11:Yellow_code/Alg_PID.cpp ****  * 1.引用命名空间后，需要创建一个结构体 //PID_Init_Config_t pid_cof
  12:Yellow_code/Alg_PID.cpp ****  * 2.为其赋值，然后可以选择使用构造函数或者初始化函数对其初始化
  13:Yellow_code/Alg_PID.cpp ****  * 3.之后就可以直接调用计算方法ECF_PID_Calculate
  14:Yellow_code/Alg_PID.cpp ****  * 例程如下：
  15:Yellow_code/Alg_PID.cpp ****  *
  16:Yellow_code/Alg_PID.cpp ****     pid_alg_n::PID_Init_Config_t pid_cof = {
  17:Yellow_code/Alg_PID.cpp ****     .Kp = 1,
  18:Yellow_code/Alg_PID.cpp ****     .Ki = 1,
  19:Yellow_code/Alg_PID.cpp ****     .Kd = 0.5,
  20:Yellow_code/Alg_PID.cpp ****     .Kfa = 0,
  21:Yellow_code/Alg_PID.cpp ****     .Kfb = 0,
  22:Yellow_code/Alg_PID.cpp ****     .ActualValueSource = ptr,
  23:Yellow_code/Alg_PID.cpp ****     .mode = Deadzone | Integral_Limit | Derivative_On_Measurement | DerivativeFilter,
  24:Yellow_code/Alg_PID.cpp ****     .max_out = 2000,
  25:Yellow_code/Alg_PID.cpp ****     .max_Ierror = 1000,
  26:Yellow_code/Alg_PID.cpp ****     .gama = 0.1,
  27:Yellow_code/Alg_PID.cpp ****     .deadband = 10,
  28:Yellow_code/Alg_PID.cpp ****     .threshold_max = 2000,
  29:Yellow_code/Alg_PID.cpp ****     .threshold_min = -2000,
  30:Yellow_code/Alg_PID.cpp ****     .errorabsmax = 100,
  31:Yellow_code/Alg_PID.cpp ****     .errorabsmin = -100,
  32:Yellow_code/Alg_PID.cpp ****     .d_filter_num = 5,
  33:Yellow_code/Alg_PID.cpp ****     .out_filter_num = 10,
  34:Yellow_code/Alg_PID.cpp ****     .stepIn = 100
ARM GAS  C:\Users\28212\AppData\Local\Temp\ccBXSG2d.s 			page 3


  35:Yellow_code/Alg_PID.cpp ****     };
  36:Yellow_code/Alg_PID.cpp ****     //不需要全部设置，根据所需设定需要的数值即可
  37:Yellow_code/Alg_PID.cpp **** 
  38:Yellow_code/Alg_PID.cpp ****     pid_alg_n::pid_alg_c pid_instance(pid_cof);
  39:Yellow_code/Alg_PID.cpp ****     pid_instance.ECF_PID_Calculate(SetValue); // 计算
  40:Yellow_code/Alg_PID.cpp ****     if (error || chance)
  41:Yellow_code/Alg_PID.cpp ****         pid_instance.ECF_PID_CLEAR();             //清除
  42:Yellow_code/Alg_PID.cpp ****  *
  43:Yellow_code/Alg_PID.cpp ****  */
  44:Yellow_code/Alg_PID.cpp **** 
  45:Yellow_code/Alg_PID.cpp **** 
  46:Yellow_code/Alg_PID.cpp **** #include "Alg_PID.hpp"
  47:Yellow_code/Alg_PID.cpp **** #include "user_maths.hpp"
  48:Yellow_code/Alg_PID.cpp **** 
  49:Yellow_code/Alg_PID.cpp **** namespace Algorithm
  50:Yellow_code/Alg_PID.cpp **** {
  51:Yellow_code/Alg_PID.cpp ****     /**
  52:Yellow_code/Alg_PID.cpp ****      * @brief          PID构造函数
  53:Yellow_code/Alg_PID.cpp ****      * @param[in]      pid_config pid 初始化参数结构体
  54:Yellow_code/Alg_PID.cpp ****      * @note 如想使用多个模式可以使用 ' | ',
  55:Yellow_code/Alg_PID.cpp ****      * @note 比如使用 积分分离 和 输出滤波 则可以在 mode 入参 (OutputFilter | Se
  56:Yellow_code/Alg_PID.cpp ****      */
  57:Yellow_code/Alg_PID.cpp ****     pid_alg_c::pid_alg_c(PID_Init_Config_t pid_config)
  58:Yellow_code/Alg_PID.cpp ****         : d_filter(pid_config.d_filter_num),
  59:Yellow_code/Alg_PID.cpp ****           out_filter(pid_config.out_filter_num)
  60:Yellow_code/Alg_PID.cpp ****     {
  61:Yellow_code/Alg_PID.cpp ****         if (pid_config.ActualValueSource != nullptr)
  62:Yellow_code/Alg_PID.cpp ****         {
  63:Yellow_code/Alg_PID.cpp ****             this->ActualValueSource_ = pid_config.ActualValueSource;
  64:Yellow_code/Alg_PID.cpp ****         }
  65:Yellow_code/Alg_PID.cpp ****         else
  66:Yellow_code/Alg_PID.cpp ****         {
  67:Yellow_code/Alg_PID.cpp ****             this->ActualValueSource_ = nullptr;
  68:Yellow_code/Alg_PID.cpp ****         }
  69:Yellow_code/Alg_PID.cpp ****         this->pid_measure_.Kp = pid_config.Kp;
  70:Yellow_code/Alg_PID.cpp ****         this->pid_measure_.Ki = pid_config.Ki;
  71:Yellow_code/Alg_PID.cpp ****         this->pid_measure_.Kd = pid_config.Kd;
  72:Yellow_code/Alg_PID.cpp ****         this->pid_measure_.Kfa = pid_config.Kfa;
  73:Yellow_code/Alg_PID.cpp ****         this->pid_measure_.Kfb = pid_config.Kfb;
  74:Yellow_code/Alg_PID.cpp ****         this->pid_measure_.mode = pid_config.mode;
  75:Yellow_code/Alg_PID.cpp **** 
  76:Yellow_code/Alg_PID.cpp ****         this->pid_measure_.max_Ierror = pid_config.max_Ierror;
  77:Yellow_code/Alg_PID.cpp **** 
  78:Yellow_code/Alg_PID.cpp ****         this->pid_measure_.gama = pid_config.gama;
  79:Yellow_code/Alg_PID.cpp **** 
  80:Yellow_code/Alg_PID.cpp ****         this->pid_measure_.threshold_max = pid_config.threshold_max;
  81:Yellow_code/Alg_PID.cpp ****         this->pid_measure_.threshold_min = pid_config.errorabsmin;
  82:Yellow_code/Alg_PID.cpp **** 
  83:Yellow_code/Alg_PID.cpp ****         this->pid_measure_.max_out = pid_config.max_out;
  84:Yellow_code/Alg_PID.cpp **** 
  85:Yellow_code/Alg_PID.cpp ****         this->pid_measure_.errorabsmax = pid_config.errorabsmax;
  86:Yellow_code/Alg_PID.cpp ****         this->pid_measure_.errorabsmin = pid_config.errorabsmin;
  87:Yellow_code/Alg_PID.cpp **** 
  88:Yellow_code/Alg_PID.cpp **** 
  89:Yellow_code/Alg_PID.cpp ****         this->pid_measure_.deadband = pid_config.deadband;
  90:Yellow_code/Alg_PID.cpp **** 
  91:Yellow_code/Alg_PID.cpp ****         this->pid_measure_.stepIn = pid_config.stepIn;
ARM GAS  C:\Users\28212\AppData\Local\Temp\ccBXSG2d.s 			page 4


  92:Yellow_code/Alg_PID.cpp ****         this->ECF_PID_CLEAR();
  93:Yellow_code/Alg_PID.cpp ****     }
  94:Yellow_code/Alg_PID.cpp **** 
  95:Yellow_code/Alg_PID.cpp ****     //无参构造函数
  96:Yellow_code/Alg_PID.cpp ****     pid_alg_c::pid_alg_c()
  81              		.loc 1 96 5 view -0
  82              		.cfi_startproc
  83              		@ args = 0, pretend = 0, frame = 0
  84              		@ frame_needed = 0, uses_anonymous_args = 0
  85              		.loc 1 96 5 is_stmt 0 view .LVU1
  86 0000 10B5     		push	{r4, lr}	@
  87              	.LCFI0:
  88              		.cfi_def_cfa_offset 8
  89              		.cfi_offset 4, -8
  90              		.cfi_offset 14, -4
  91 0002 2DED028B 		vpush.64	{d8}	@
  92              	.LCFI1:
  93              		.cfi_def_cfa_offset 16
  94              		.cfi_offset 80, -16
  95              		.cfi_offset 81, -12
  96 0006 0446     		mov	r4, r0	@ this, tmp153
  97              	.LBB12:
  98              	@ Yellow_code/Alg_PID.cpp:98:           out_filter(0) {}
  97:Yellow_code/Alg_PID.cpp ****         : d_filter(0),
  98:Yellow_code/Alg_PID.cpp ****           out_filter(0) {}
  99              		.loc 1 98 23 view .LVU2
 100 0008 9FED278A 		vldr.32	s16, .L3	@ tmp118,
 101 000c B0EE480A 		vmov.f32	s0, s16	@, tmp118
 102 0010 FFF7FEFF 		bl	_ZN9Algorithm20first_order_filter_cC1Ef		@
 103              	.LVL1:
 104              		.loc 1 98 23 view .LVU3
 105 0014 B0EE480A 		vmov.f32	s0, s16	@, tmp118
 106 0018 04F11000 		add	r0, r4, #16	@, this,
 107 001c FFF7FEFF 		bl	_ZN9Algorithm20first_order_filter_cC1Ef		@
 108              	.LVL2:
 109 0020 04F12003 		add	r3, r4, #32	@ _3, this,
 110              	.LVL3:
 111              	.LBB13:
 112              	.LBI13:
 113              		.file 2 "Yellow_code/Alg_PID.hpp"
   1:Yellow_code/Alg_PID.hpp **** #pragma once
   2:Yellow_code/Alg_PID.hpp **** 
   3:Yellow_code/Alg_PID.hpp **** #ifndef __PID_ALG_HPP
   4:Yellow_code/Alg_PID.hpp **** #define __PID_ALG_HPP
   5:Yellow_code/Alg_PID.hpp **** 
   6:Yellow_code/Alg_PID.hpp **** #include "filter.hpp"
   7:Yellow_code/Alg_PID.hpp **** #include <cstdint>
   8:Yellow_code/Alg_PID.hpp **** 
   9:Yellow_code/Alg_PID.hpp **** namespace Algorithm
  10:Yellow_code/Alg_PID.hpp **** {
  11:Yellow_code/Alg_PID.hpp ****     // PID 枚举结构体
  12:Yellow_code/Alg_PID.hpp ****     enum PID_mode_e
  13:Yellow_code/Alg_PID.hpp ****     {
  14:Yellow_code/Alg_PID.hpp ****         NONE = 0X00,                     // 0000 0000 无
  15:Yellow_code/Alg_PID.hpp ****         Deadzone = 0x01,                 // 0000 0001 死区
  16:Yellow_code/Alg_PID.hpp ****         Integral_Limit = 0x02,           // 0000 0010 积分限幅
  17:Yellow_code/Alg_PID.hpp ****         Output_Limit = 0x04,             // 0000 0100 输出限幅
ARM GAS  C:\Users\28212\AppData\Local\Temp\ccBXSG2d.s 			page 5


  18:Yellow_code/Alg_PID.hpp ****         Derivative_On_Measurement = 0x08,// 0000 1000 微分先行 TODO:
  19:Yellow_code/Alg_PID.hpp ****         Separated_Integral = 0x10,       // 0001 0000 积分分离
  20:Yellow_code/Alg_PID.hpp ****         ChangingIntegrationRate = 0x20,  // 0010 0000 变积分
  21:Yellow_code/Alg_PID.hpp ****         OutputFilter = 0x40,             // 0100 0000 输出滤波
  22:Yellow_code/Alg_PID.hpp ****         DerivativeFilter = 0x80,         // 1000 0000 微分滤波
  23:Yellow_code/Alg_PID.hpp ****         StepIn = 0x0100,                 // 0000 0001 0000 0000 步进式
  24:Yellow_code/Alg_PID.hpp ****         Trapezoid_integral = 0x0200,     // 0000 0010 0000 0000 梯形积分
  25:Yellow_code/Alg_PID.hpp ****         Feedforward = 0x0400,            // 0000 0100 0000 0000 前馈PID
  26:Yellow_code/Alg_PID.hpp ****     };
  27:Yellow_code/Alg_PID.hpp **** 
  28:Yellow_code/Alg_PID.hpp ****     //PID初始化结构体
  29:Yellow_code/Alg_PID.hpp ****     struct PID_Init_Config_t
  30:Yellow_code/Alg_PID.hpp ****     {
  31:Yellow_code/Alg_PID.hpp ****         float Kp = 0;
  32:Yellow_code/Alg_PID.hpp ****         float Ki = 0;
  33:Yellow_code/Alg_PID.hpp ****         float Kd = 0;
  34:Yellow_code/Alg_PID.hpp **** 
  35:Yellow_code/Alg_PID.hpp ****         //前馈PID系数
  36:Yellow_code/Alg_PID.hpp ****         float Kfa = 0;
  37:Yellow_code/Alg_PID.hpp ****         float Kfb = 0;
  38:Yellow_code/Alg_PID.hpp **** 
  39:Yellow_code/Alg_PID.hpp ****         float *ActualValueSource = nullptr;//数据来源
  40:Yellow_code/Alg_PID.hpp **** 
  41:Yellow_code/Alg_PID.hpp ****         uint32_t mode = 0;// pid模式
  42:Yellow_code/Alg_PID.hpp ****         /* 输出限幅 */
  43:Yellow_code/Alg_PID.hpp ****         float max_out = 0;
  44:Yellow_code/Alg_PID.hpp ****         /* 积分限幅 */
  45:Yellow_code/Alg_PID.hpp ****         float max_Ierror = 0;//最大积分输出
  46:Yellow_code/Alg_PID.hpp ****         /* 微分先行 */
  47:Yellow_code/Alg_PID.hpp ****         float gama = 0;// 微分先行滤波系数
  48:Yellow_code/Alg_PID.hpp ****         /* 误差死区 */
  49:Yellow_code/Alg_PID.hpp ****         float deadband = 0;
  50:Yellow_code/Alg_PID.hpp ****         /* 积分分离 */
  51:Yellow_code/Alg_PID.hpp ****         float threshold_max = 0;//积分分离最大值
  52:Yellow_code/Alg_PID.hpp ****         float threshold_min = 0;//积分分离最小值
  53:Yellow_code/Alg_PID.hpp ****         /* 变积分 */
  54:Yellow_code/Alg_PID.hpp ****         float errorabsmax = 0;//偏差绝对值最大值
  55:Yellow_code/Alg_PID.hpp ****         float errorabsmin = 0;//偏差绝对值最小值
  56:Yellow_code/Alg_PID.hpp ****         /* 微分滤波 */
  57:Yellow_code/Alg_PID.hpp ****         float d_filter_num = 0;
  58:Yellow_code/Alg_PID.hpp ****         /* 输出滤波 */
  59:Yellow_code/Alg_PID.hpp ****         float out_filter_num = 0;
  60:Yellow_code/Alg_PID.hpp ****         /* 步进数 */
  61:Yellow_code/Alg_PID.hpp ****         float stepIn = 0;
  62:Yellow_code/Alg_PID.hpp ****     };
  63:Yellow_code/Alg_PID.hpp **** 
  64:Yellow_code/Alg_PID.hpp ****     // pid结构体变量
  65:Yellow_code/Alg_PID.hpp ****     struct pid_parameter_t
 114              		.loc 2 65 12 is_stmt 1 view .LVU4
 115              	.LBB14:
 116 0024 84ED088A 		vstr.32	s16, [r4, #32]	@ tmp118, _3->Kp
 117 0028 83ED018A 		vstr.32	s16, [r3, #4]	@ tmp118, _3->Ki
 118 002c 83ED028A 		vstr.32	s16, [r3, #8]	@ tmp118, _3->Kd
 119 0030 83ED038A 		vstr.32	s16, [r3, #12]	@ tmp118, _3->Kfa
 120 0034 83ED048A 		vstr.32	s16, [r3, #16]	@ tmp118, _3->Kfb
 121 0038 83ED058A 		vstr.32	s16, [r3, #20]	@ tmp118, _3->SetValue
 122 003c 83ED068A 		vstr.32	s16, [r3, #24]	@ tmp118, _3->LastSetValue
ARM GAS  C:\Users\28212\AppData\Local\Temp\ccBXSG2d.s 			page 6


 123 0040 83ED078A 		vstr.32	s16, [r3, #28]	@ tmp118, _3->PerrSetValue
 124 0044 83ED088A 		vstr.32	s16, [r3, #32]	@ tmp118, _3->ActualValue
 125 0048 83ED098A 		vstr.32	s16, [r3, #36]	@ tmp118, _3->LastActualValue
 126 004c 83ED0A8A 		vstr.32	s16, [r3, #40]	@ tmp118, _3->Ierror
 127 0050 83ED0B8A 		vstr.32	s16, [r3, #44]	@ tmp118, _3->Pout
 128 0054 83ED0C8A 		vstr.32	s16, [r3, #48]	@ tmp118, _3->Iout
 129 0058 83ED0D8A 		vstr.32	s16, [r3, #52]	@ tmp118, _3->Dout
 130 005c 83ED0E8A 		vstr.32	s16, [r3, #56]	@ tmp118, _3->Fout
 131 0060 83ED0F8A 		vstr.32	s16, [r3, #60]	@ tmp118, _3->out
 132 0064 83ED108A 		vstr.32	s16, [r3, #64]	@ tmp118, _3->Derror
 133 0068 83ED118A 		vstr.32	s16, [r3, #68]	@ tmp118, _3->LastDerror
 134 006c 83ED128A 		vstr.32	s16, [r3, #72]	@ tmp118, _3->LastLastDerror
 135 0070 83ED138A 		vstr.32	s16, [r3, #76]	@ tmp118, _3->error
 136 0074 83ED148A 		vstr.32	s16, [r3, #80]	@ tmp118, _3->LastError
 137 0078 83ED158A 		vstr.32	s16, [r3, #84]	@ tmp118, _3->max_out
 138 007c 0022     		movs	r2, #0	@ tmp143,
 139 007e 9A65     		str	r2, [r3, #88]	@ tmp143, _3->mode
 140 0080 83ED178A 		vstr.32	s16, [r3, #92]	@ tmp118, _3->max_Ierror
 141 0084 83ED188A 		vstr.32	s16, [r3, #96]	@ tmp118, _3->deadband
 142 0088 83ED198A 		vstr.32	s16, [r3, #100]	@ tmp118, _3->threshold_max
 143 008c 83ED1A8A 		vstr.32	s16, [r3, #104]	@ tmp118, _3->threshold_min
 144 0090 83ED1B8A 		vstr.32	s16, [r3, #108]	@ tmp118, _3->errorabsmax
 145 0094 83ED1C8A 		vstr.32	s16, [r3, #112]	@ tmp118, _3->errorabsmin
 146 0098 83ED1D8A 		vstr.32	s16, [r3, #116]	@ tmp118, _3->gama
 147 009c 83ED1E8A 		vstr.32	s16, [r3, #120]	@ tmp118, _3->stepIn
 148              	.LVL4:
 149              		.loc 2 65 12 is_stmt 0 view .LVU5
 150              	.LBE14:
 151              	.LBE13:
 152              	.LBE12:
 153              	@ Yellow_code/Alg_PID.cpp:98:           out_filter(0) {}
 154              		.loc 1 98 26 view .LVU6
 155 00a0 2046     		mov	r0, r4	@, this
 156 00a2 BDEC028B 		vldm	sp!, {d8}	@
 157              	.LCFI2:
 158              		.cfi_restore 80
 159              		.cfi_restore 81
 160              		.cfi_def_cfa_offset 8
 161 00a6 10BD     		pop	{r4, pc}	@
 162              	.LVL5:
 163              	.L4:
 164              		.loc 1 98 26 view .LVU7
 165              		.align	2
 166              	.L3:
 167 00a8 00000000 		.word	0
 168              		.cfi_endproc
 169              	.LFE11:
 170              		.size	_ZN9Algorithm9pid_alg_cC2Ev, .-_ZN9Algorithm9pid_alg_cC2Ev
 171              		.global	_ZN9Algorithm9pid_alg_cC1Ev
 172              		.thumb_set _ZN9Algorithm9pid_alg_cC1Ev,_ZN9Algorithm9pid_alg_cC2Ev
 173              		.section	.text._ZN9Algorithm9pid_alg_c26ECF_PID_ChangeActValSourceEPf,"ax",%progbits
 174              		.align	1
 175              		.global	_ZN9Algorithm9pid_alg_c26ECF_PID_ChangeActValSourceEPf
 176              		.syntax unified
 177              		.thumb
 178              		.thumb_func
 179              		.type	_ZN9Algorithm9pid_alg_c26ECF_PID_ChangeActValSourceEPf, %function
ARM GAS  C:\Users\28212\AppData\Local\Temp\ccBXSG2d.s 			page 7


 180              	_ZN9Algorithm9pid_alg_c26ECF_PID_ChangeActValSourceEPf:
 181              	.LVL6:
 182              	.LFB14:
  99:Yellow_code/Alg_PID.cpp **** 
 100:Yellow_code/Alg_PID.cpp ****     /**
 101:Yellow_code/Alg_PID.cpp ****      * @brief          PID初始化函数,如果使用了构造就不需要这个函数了，这里
 102:Yellow_code/Alg_PID.cpp ****      * @param[in]      pid_config pid 初始化参数结构体
 103:Yellow_code/Alg_PID.cpp ****      * @note 如想使用多个模式可以使用 ' | ',
 104:Yellow_code/Alg_PID.cpp ****      * @note 比如使用 积分分离 和 输出滤波 则可以在 mode 入参 (OutputFilter | Se
 105:Yellow_code/Alg_PID.cpp ****      */
 106:Yellow_code/Alg_PID.cpp ****     void pid_alg_c::pid_init(PID_Init_Config_t pid_config)
 107:Yellow_code/Alg_PID.cpp ****     {
 108:Yellow_code/Alg_PID.cpp ****         // memset(&this->pid_measure_, 0, sizeof(pid_parameter_t));
 109:Yellow_code/Alg_PID.cpp ****         this->ActualValueSource_ = pid_config.ActualValueSource;
 110:Yellow_code/Alg_PID.cpp ****         this->pid_measure_.Kp = pid_config.Kp;
 111:Yellow_code/Alg_PID.cpp ****         this->pid_measure_.Ki = pid_config.Ki;
 112:Yellow_code/Alg_PID.cpp ****         this->pid_measure_.Kd = pid_config.Kd;
 113:Yellow_code/Alg_PID.cpp ****         this->pid_measure_.Kfa = pid_config.Kfa;
 114:Yellow_code/Alg_PID.cpp ****         this->pid_measure_.Kfb = pid_config.Kfb;
 115:Yellow_code/Alg_PID.cpp ****         this->pid_measure_.mode = pid_config.mode;
 116:Yellow_code/Alg_PID.cpp **** 
 117:Yellow_code/Alg_PID.cpp ****         this->pid_measure_.max_Ierror = pid_config.max_Ierror;
 118:Yellow_code/Alg_PID.cpp **** 
 119:Yellow_code/Alg_PID.cpp ****         this->pid_measure_.gama = pid_config.gama;
 120:Yellow_code/Alg_PID.cpp **** 
 121:Yellow_code/Alg_PID.cpp ****         this->pid_measure_.threshold_max = pid_config.threshold_max;
 122:Yellow_code/Alg_PID.cpp ****         this->pid_measure_.threshold_min = pid_config.errorabsmin;
 123:Yellow_code/Alg_PID.cpp **** 
 124:Yellow_code/Alg_PID.cpp ****         this->pid_measure_.max_out = pid_config.max_out;
 125:Yellow_code/Alg_PID.cpp **** 
 126:Yellow_code/Alg_PID.cpp ****         this->out_filter.first_order_filter_init(pid_config.out_filter_num);
 127:Yellow_code/Alg_PID.cpp **** 
 128:Yellow_code/Alg_PID.cpp ****         this->pid_measure_.errorabsmax = pid_config.errorabsmax;
 129:Yellow_code/Alg_PID.cpp ****         this->pid_measure_.errorabsmin = pid_config.errorabsmin;
 130:Yellow_code/Alg_PID.cpp **** 
 131:Yellow_code/Alg_PID.cpp ****         this->d_filter.first_order_filter_init(pid_config.d_filter_num);
 132:Yellow_code/Alg_PID.cpp **** 
 133:Yellow_code/Alg_PID.cpp ****         this->pid_measure_.deadband = pid_config.deadband;
 134:Yellow_code/Alg_PID.cpp **** 
 135:Yellow_code/Alg_PID.cpp ****         this->pid_measure_.stepIn = pid_config.stepIn;
 136:Yellow_code/Alg_PID.cpp ****         this->ECF_PID_CLEAR();
 137:Yellow_code/Alg_PID.cpp ****     }
 138:Yellow_code/Alg_PID.cpp **** 
 139:Yellow_code/Alg_PID.cpp ****     /**
 140:Yellow_code/Alg_PID.cpp ****      * @brief 更改闭环的实际值来源
 141:Yellow_code/Alg_PID.cpp ****      * @param ActValSource
 142:Yellow_code/Alg_PID.cpp ****     */
 143:Yellow_code/Alg_PID.cpp ****     void pid_alg_c::ECF_PID_ChangeActValSource(float *ActValSource)
 144:Yellow_code/Alg_PID.cpp ****     {
 183              		.loc 1 144 5 is_stmt 1 view -0
 184              		.cfi_startproc
 185              		@ args = 0, pretend = 0, frame = 0
 186              		@ frame_needed = 0, uses_anonymous_args = 0
 187              		@ link register save eliminated.
 145:Yellow_code/Alg_PID.cpp ****         this->ActualValueSource_ = ActValSource;
 188              		.loc 1 145 9 view .LVU9
 189              	@ Yellow_code/Alg_PID.cpp:145:         this->ActualValueSource_ = ActValSource;
ARM GAS  C:\Users\28212\AppData\Local\Temp\ccBXSG2d.s 			page 8


 190              		.loc 1 145 34 is_stmt 0 view .LVU10
 191 0000 C0F89C10 		str	r1, [r0, #156]	@ tmp116, this_2(D)->ActualValueSource_
 192              	@ Yellow_code/Alg_PID.cpp:146:     }
 146:Yellow_code/Alg_PID.cpp ****     }
 193              		.loc 1 146 5 view .LVU11
 194 0004 7047     		bx	lr	@
 195              		.cfi_endproc
 196              	.LFE14:
 197              		.size	_ZN9Algorithm9pid_alg_c26ECF_PID_ChangeActValSourceEPf, .-_ZN9Algorithm9pid_alg_c26ECF_PID_C
 198              		.section	.text._ZN9Algorithm9pid_alg_c13ECF_PID_CLEAREv,"ax",%progbits
 199              		.align	1
 200              		.global	_ZN9Algorithm9pid_alg_c13ECF_PID_CLEAREv
 201              		.syntax unified
 202              		.thumb
 203              		.thumb_func
 204              		.type	_ZN9Algorithm9pid_alg_c13ECF_PID_CLEAREv, %function
 205              	_ZN9Algorithm9pid_alg_c13ECF_PID_CLEAREv:
 206              	.LVL7:
 207              	.LFB15:
 147:Yellow_code/Alg_PID.cpp **** 
 148:Yellow_code/Alg_PID.cpp **** 
 149:Yellow_code/Alg_PID.cpp ****     /**
 150:Yellow_code/Alg_PID.cpp ****      * @brief          PID清除
 151:Yellow_code/Alg_PID.cpp ****      * @retval         none
 152:Yellow_code/Alg_PID.cpp ****      * @attention      只是清除所有计算的数据，不会清除pid或者模式的数据
 153:Yellow_code/Alg_PID.cpp ****      */
 154:Yellow_code/Alg_PID.cpp ****     void pid_alg_c::ECF_PID_CLEAR(void)
 155:Yellow_code/Alg_PID.cpp ****     {
 208              		.loc 1 155 5 is_stmt 1 view -0
 209              		.cfi_startproc
 210              		@ args = 0, pretend = 0, frame = 0
 211              		@ frame_needed = 0, uses_anonymous_args = 0
 212              		.loc 1 155 5 is_stmt 0 view .LVU13
 213 0000 10B5     		push	{r4, lr}	@
 214              	.LCFI3:
 215              		.cfi_def_cfa_offset 8
 216              		.cfi_offset 4, -8
 217              		.cfi_offset 14, -4
 218 0002 0446     		mov	r4, r0	@ this, tmp133
 156:Yellow_code/Alg_PID.cpp ****         this->pid_measure_.error = this->pid_measure_.LastError = 0.0f;
 219              		.loc 1 156 9 is_stmt 1 view .LVU14
 220              	@ Yellow_code/Alg_PID.cpp:156:         this->pid_measure_.error = this->pid_measure_.LastError = 0.
 221              		.loc 1 156 65 is_stmt 0 view .LVU15
 222 0004 0023     		movs	r3, #0	@ tmp116,
 223 0006 0367     		str	r3, [r0, #112]	@ float	@ tmp116, this_4(D)->pid_measure_.LastError
 224              	@ Yellow_code/Alg_PID.cpp:156:         this->pid_measure_.error = this->pid_measure_.LastError = 0.
 225              		.loc 1 156 34 view .LVU16
 226 0008 C366     		str	r3, [r0, #108]	@ float	@ tmp116, this_4(D)->pid_measure_.error
 157:Yellow_code/Alg_PID.cpp ****         this->pid_measure_.Derror = this->pid_measure_.LastDerror = this->pid_measure_.LastLastDerr
 227              		.loc 1 157 9 is_stmt 1 view .LVU17
 228              	@ Yellow_code/Alg_PID.cpp:157:         this->pid_measure_.Derror = this->pid_measure_.LastDerror = 
 229              		.loc 1 157 103 is_stmt 0 view .LVU18
 230 000a 8366     		str	r3, [r0, #104]	@ float	@ tmp116, this_4(D)->pid_measure_.LastLastDerror
 231              	@ Yellow_code/Alg_PID.cpp:157:         this->pid_measure_.Derror = this->pid_measure_.LastDerror = 
 232              		.loc 1 157 67 view .LVU19
 233 000c 4366     		str	r3, [r0, #100]	@ float	@ tmp116, this_4(D)->pid_measure_.LastDerror
 234              	@ Yellow_code/Alg_PID.cpp:157:         this->pid_measure_.Derror = this->pid_measure_.LastDerror = 
ARM GAS  C:\Users\28212\AppData\Local\Temp\ccBXSG2d.s 			page 9


 235              		.loc 1 157 35 view .LVU20
 236 000e 0366     		str	r3, [r0, #96]	@ float	@ tmp116, this_4(D)->pid_measure_.Derror
 158:Yellow_code/Alg_PID.cpp ****         this->pid_measure_.out = this->pid_measure_.Pout = this->pid_measure_.Iout = this->pid_meas
 237              		.loc 1 158 9 is_stmt 1 view .LVU21
 238              	@ Yellow_code/Alg_PID.cpp:158:         this->pid_measure_.out = this->pid_measure_.Pout = this->pid
 239              		.loc 1 158 164 is_stmt 0 view .LVU22
 240 0010 8365     		str	r3, [r0, #88]	@ float	@ tmp116, this_4(D)->pid_measure_.Fout
 241              	@ Yellow_code/Alg_PID.cpp:158:         this->pid_measure_.out = this->pid_measure_.Pout = this->pid
 242              		.loc 1 158 138 view .LVU23
 243 0012 8364     		str	r3, [r0, #72]	@ float	@ tmp116, this_4(D)->pid_measure_.Ierror
 244              	@ Yellow_code/Alg_PID.cpp:158:         this->pid_measure_.out = this->pid_measure_.Pout = this->pid
 245              		.loc 1 158 110 view .LVU24
 246 0014 4365     		str	r3, [r0, #84]	@ float	@ tmp116, this_4(D)->pid_measure_.Dout
 247              	@ Yellow_code/Alg_PID.cpp:158:         this->pid_measure_.out = this->pid_measure_.Pout = this->pid
 248              		.loc 1 158 84 view .LVU25
 249 0016 0365     		str	r3, [r0, #80]	@ float	@ tmp116, this_4(D)->pid_measure_.Iout
 250              	@ Yellow_code/Alg_PID.cpp:158:         this->pid_measure_.out = this->pid_measure_.Pout = this->pid
 251              		.loc 1 158 58 view .LVU26
 252 0018 C364     		str	r3, [r0, #76]	@ float	@ tmp116, this_4(D)->pid_measure_.Pout
 253              	@ Yellow_code/Alg_PID.cpp:158:         this->pid_measure_.out = this->pid_measure_.Pout = this->pid
 254              		.loc 1 158 32 view .LVU27
 255 001a C365     		str	r3, [r0, #92]	@ float	@ tmp116, this_4(D)->pid_measure_.out
 159:Yellow_code/Alg_PID.cpp ****         this->pid_measure_.ActualValue = this->pid_measure_.SetValue = this->pid_measure_.LastActua
 256              		.loc 1 159 9 is_stmt 1 view .LVU28
 257              	@ Yellow_code/Alg_PID.cpp:159:         this->pid_measure_.ActualValue = this->pid_measure_.SetValue
 258              		.loc 1 159 175 is_stmt 0 view .LVU29
 259 001c C363     		str	r3, [r0, #60]	@ float	@ tmp116, this_4(D)->pid_measure_.PerrSetValue
 260              	@ Yellow_code/Alg_PID.cpp:159:         this->pid_measure_.ActualValue = this->pid_measure_.SetValue
 261              		.loc 1 159 141 view .LVU30
 262 001e 8363     		str	r3, [r0, #56]	@ float	@ tmp116, this_4(D)->pid_measure_.LastSetValue
 263              	@ Yellow_code/Alg_PID.cpp:159:         this->pid_measure_.ActualValue = this->pid_measure_.SetValue
 264              		.loc 1 159 107 view .LVU31
 265 0020 4364     		str	r3, [r0, #68]	@ float	@ tmp116, this_4(D)->pid_measure_.LastActualValue
 266              	@ Yellow_code/Alg_PID.cpp:159:         this->pid_measure_.ActualValue = this->pid_measure_.SetValue
 267              		.loc 1 159 70 view .LVU32
 268 0022 4363     		str	r3, [r0, #52]	@ float	@ tmp116, this_4(D)->pid_measure_.SetValue
 269              	@ Yellow_code/Alg_PID.cpp:159:         this->pid_measure_.ActualValue = this->pid_measure_.SetValue
 270              		.loc 1 159 40 view .LVU33
 271 0024 0364     		str	r3, [r0, #64]	@ float	@ tmp116, this_4(D)->pid_measure_.ActualValue
 160:Yellow_code/Alg_PID.cpp ****         this->d_filter.first_order_filter_clear();
 272              		.loc 1 160 9 is_stmt 1 view .LVU34
 273              	@ Yellow_code/Alg_PID.cpp:160:         this->d_filter.first_order_filter_clear();
 274              		.loc 1 160 48 is_stmt 0 view .LVU35
 275 0026 FFF7FEFF 		bl	_ZN9Algorithm20first_order_filter_c24first_order_filter_clearEv		@
 276              	.LVL8:
 161:Yellow_code/Alg_PID.cpp ****         this->out_filter.first_order_filter_clear();
 277              		.loc 1 161 9 is_stmt 1 view .LVU36
 278              	@ Yellow_code/Alg_PID.cpp:161:         this->out_filter.first_order_filter_clear();
 279              		.loc 1 161 50 is_stmt 0 view .LVU37
 280 002a 04F11000 		add	r0, r4, #16	@, this,
 281 002e FFF7FEFF 		bl	_ZN9Algorithm20first_order_filter_c24first_order_filter_clearEv		@
 282              	.LVL9:
 283              	@ Yellow_code/Alg_PID.cpp:162:     }
 162:Yellow_code/Alg_PID.cpp ****     }
 284              		.loc 1 162 5 view .LVU38
 285 0032 10BD     		pop	{r4, pc}	@
 286              		.loc 1 162 5 view .LVU39
ARM GAS  C:\Users\28212\AppData\Local\Temp\ccBXSG2d.s 			page 10


 287              		.cfi_endproc
 288              	.LFE15:
 289              		.size	_ZN9Algorithm9pid_alg_c13ECF_PID_CLEAREv, .-_ZN9Algorithm9pid_alg_c13ECF_PID_CLEAREv
 290              		.section	.text._ZN9Algorithm9pid_alg_cC2ENS_17PID_Init_Config_tE,"ax",%progbits
 291              		.align	1
 292              		.global	_ZN9Algorithm9pid_alg_cC2ENS_17PID_Init_Config_tE
 293              		.syntax unified
 294              		.thumb
 295              		.thumb_func
 296              		.type	_ZN9Algorithm9pid_alg_cC2ENS_17PID_Init_Config_tE, %function
 297              	_ZN9Algorithm9pid_alg_cC2ENS_17PID_Init_Config_tE:
 298              	.LVL10:
 299              	.LFB8:
  57:Yellow_code/Alg_PID.cpp ****         : d_filter(pid_config.d_filter_num),
 300              		.loc 1 57 5 is_stmt 1 view -0
 301              		.cfi_startproc
 302              		@ args = 76, pretend = 16, frame = 0
 303              		@ frame_needed = 0, uses_anonymous_args = 0
  57:Yellow_code/Alg_PID.cpp ****         : d_filter(pid_config.d_filter_num),
 304              		.loc 1 57 5 is_stmt 0 view .LVU41
 305 0000 84B0     		sub	sp, sp, #16	@,,
 306              	.LCFI4:
 307              		.cfi_def_cfa_offset 16
 308 0002 10B5     		push	{r4, lr}	@
 309              	.LCFI5:
 310              		.cfi_def_cfa_offset 24
 311              		.cfi_offset 4, -24
 312              		.cfi_offset 14, -20
 313 0004 0446     		mov	r4, r0	@ this, tmp172
 314 0006 0DF10C0C 		add	ip, sp, #12	@ tmp135,,
 315 000a 8CE80E00 		stm	ip, {r1, r2, r3}	@ tmp135,,,
 316              	.LBB19:
 317              	@ Yellow_code/Alg_PID.cpp:59:           out_filter(pid_config.out_filter_num)
  59:Yellow_code/Alg_PID.cpp ****     {
 318              		.loc 1 59 47 view .LVU42
 319 000e 9DED120A 		vldr.32	s0, [sp, #72]	@, pid_config.d_filter_num
 320 0012 FFF7FEFF 		bl	_ZN9Algorithm20first_order_filter_cC1Ef		@
 321              	.LVL11:
  59:Yellow_code/Alg_PID.cpp ****     {
 322              		.loc 1 59 47 view .LVU43
 323 0016 9DED130A 		vldr.32	s0, [sp, #76]	@, pid_config.out_filter_num
 324 001a 04F11000 		add	r0, r4, #16	@, this,
 325 001e FFF7FEFF 		bl	_ZN9Algorithm20first_order_filter_cC1Ef		@
 326              	.LVL12:
 327 0022 04F12003 		add	r3, r4, #32	@ _5, this,
 328              	.LVL13:
 329              	.LBB20:
 330              	.LBI20:
 331              		.loc 2 65 12 is_stmt 1 view .LVU44
 332              	.LBB21:
 333 0026 0022     		movs	r2, #0	@ tmp139,
 334 0028 2262     		str	r2, [r4, #32]	@ float	@ tmp139, _5->Kp
 335 002a 5A60     		str	r2, [r3, #4]	@ float	@ tmp139, _5->Ki
 336 002c 9A60     		str	r2, [r3, #8]	@ float	@ tmp139, _5->Kd
 337 002e DA60     		str	r2, [r3, #12]	@ float	@ tmp139, _5->Kfa
 338 0030 1A61     		str	r2, [r3, #16]	@ float	@ tmp139, _5->Kfb
 339 0032 5A61     		str	r2, [r3, #20]	@ float	@ tmp139, _5->SetValue
ARM GAS  C:\Users\28212\AppData\Local\Temp\ccBXSG2d.s 			page 11


 340 0034 9A61     		str	r2, [r3, #24]	@ float	@ tmp139, _5->LastSetValue
 341 0036 DA61     		str	r2, [r3, #28]	@ float	@ tmp139, _5->PerrSetValue
 342 0038 1A62     		str	r2, [r3, #32]	@ float	@ tmp139, _5->ActualValue
 343 003a 5A62     		str	r2, [r3, #36]	@ float	@ tmp139, _5->LastActualValue
 344 003c 9A62     		str	r2, [r3, #40]	@ float	@ tmp139, _5->Ierror
 345 003e DA62     		str	r2, [r3, #44]	@ float	@ tmp139, _5->Pout
 346 0040 1A63     		str	r2, [r3, #48]	@ float	@ tmp139, _5->Iout
 347 0042 5A63     		str	r2, [r3, #52]	@ float	@ tmp139, _5->Dout
 348 0044 9A63     		str	r2, [r3, #56]	@ float	@ tmp139, _5->Fout
 349 0046 DA63     		str	r2, [r3, #60]	@ float	@ tmp139, _5->out
 350 0048 1A64     		str	r2, [r3, #64]	@ float	@ tmp139, _5->Derror
 351 004a 5A64     		str	r2, [r3, #68]	@ float	@ tmp139, _5->LastDerror
 352 004c 9A64     		str	r2, [r3, #72]	@ float	@ tmp139, _5->LastLastDerror
 353 004e DA64     		str	r2, [r3, #76]	@ float	@ tmp139, _5->error
 354 0050 1A65     		str	r2, [r3, #80]	@ float	@ tmp139, _5->LastError
 355 0052 5A65     		str	r2, [r3, #84]	@ float	@ tmp139, _5->max_out
 356 0054 0021     		movs	r1, #0	@ tmp161,
 357 0056 9965     		str	r1, [r3, #88]	@ tmp161, _5->mode
 358 0058 DA65     		str	r2, [r3, #92]	@ float	@ tmp139, _5->max_Ierror
 359 005a 1A66     		str	r2, [r3, #96]	@ float	@ tmp139, _5->deadband
 360 005c 5A66     		str	r2, [r3, #100]	@ float	@ tmp139, _5->threshold_max
 361 005e 9A66     		str	r2, [r3, #104]	@ float	@ tmp139, _5->threshold_min
 362 0060 DA66     		str	r2, [r3, #108]	@ float	@ tmp139, _5->errorabsmax
 363 0062 1A67     		str	r2, [r3, #112]	@ float	@ tmp139, _5->errorabsmin
 364 0064 5A67     		str	r2, [r3, #116]	@ float	@ tmp139, _5->gama
 365 0066 9A67     		str	r2, [r3, #120]	@ float	@ tmp139, _5->stepIn
 366              	.LVL14:
 367              		.loc 2 65 12 is_stmt 0 view .LVU45
 368              	.LBE21:
 369              	.LBE20:
  61:Yellow_code/Alg_PID.cpp ****         {
 370              		.loc 1 61 9 is_stmt 1 view .LVU46
 371              	@ Yellow_code/Alg_PID.cpp:61:         if (pid_config.ActualValueSource != nullptr)
  61:Yellow_code/Alg_PID.cpp ****         {
 372              		.loc 1 61 24 is_stmt 0 view .LVU47
 373 0068 089B     		ldr	r3, [sp, #32]	@ _6, pid_config.ActualValueSource
 374              	@ Yellow_code/Alg_PID.cpp:61:         if (pid_config.ActualValueSource != nullptr)
  61:Yellow_code/Alg_PID.cpp ****         {
 375              		.loc 1 61 9 view .LVU48
 376 006a 002B     		cmp	r3, #0	@ _6
 377 006c 2DD0     		beq	.L9	@
  63:Yellow_code/Alg_PID.cpp ****         }
 378              		.loc 1 63 13 is_stmt 1 view .LVU49
 379              	@ Yellow_code/Alg_PID.cpp:63:             this->ActualValueSource_ = pid_config.ActualValueSource;
  63:Yellow_code/Alg_PID.cpp ****         }
 380              		.loc 1 63 38 is_stmt 0 view .LVU50
 381 006e C4F89C30 		str	r3, [r4, #156]	@ _6, this_23(D)->ActualValueSource_
 382              	.L10:
  69:Yellow_code/Alg_PID.cpp ****         this->pid_measure_.Ki = pid_config.Ki;
 383              		.loc 1 69 9 is_stmt 1 view .LVU51
 384              	@ Yellow_code/Alg_PID.cpp:69:         this->pid_measure_.Kp = pid_config.Kp;
  69:Yellow_code/Alg_PID.cpp ****         this->pid_measure_.Ki = pid_config.Ki;
 385              		.loc 1 69 44 is_stmt 0 view .LVU52
 386 0072 039B     		ldr	r3, [sp, #12]	@ float	@ _7, pid_config.Kp
 387              	@ Yellow_code/Alg_PID.cpp:69:         this->pid_measure_.Kp = pid_config.Kp;
  69:Yellow_code/Alg_PID.cpp ****         this->pid_measure_.Ki = pid_config.Ki;
 388              		.loc 1 69 31 view .LVU53
ARM GAS  C:\Users\28212\AppData\Local\Temp\ccBXSG2d.s 			page 12


 389 0074 2362     		str	r3, [r4, #32]	@ float	@ _7, this_23(D)->pid_measure_.Kp
  70:Yellow_code/Alg_PID.cpp ****         this->pid_measure_.Kd = pid_config.Kd;
 390              		.loc 1 70 9 is_stmt 1 view .LVU54
 391              	@ Yellow_code/Alg_PID.cpp:70:         this->pid_measure_.Ki = pid_config.Ki;
  70:Yellow_code/Alg_PID.cpp ****         this->pid_measure_.Kd = pid_config.Kd;
 392              		.loc 1 70 44 is_stmt 0 view .LVU55
 393 0076 049B     		ldr	r3, [sp, #16]	@ float	@ _8, pid_config.Ki
 394              	@ Yellow_code/Alg_PID.cpp:70:         this->pid_measure_.Ki = pid_config.Ki;
  70:Yellow_code/Alg_PID.cpp ****         this->pid_measure_.Kd = pid_config.Kd;
 395              		.loc 1 70 31 view .LVU56
 396 0078 6362     		str	r3, [r4, #36]	@ float	@ _8, this_23(D)->pid_measure_.Ki
  71:Yellow_code/Alg_PID.cpp ****         this->pid_measure_.Kfa = pid_config.Kfa;
 397              		.loc 1 71 9 is_stmt 1 view .LVU57
 398              	@ Yellow_code/Alg_PID.cpp:71:         this->pid_measure_.Kd = pid_config.Kd;
  71:Yellow_code/Alg_PID.cpp ****         this->pid_measure_.Kfa = pid_config.Kfa;
 399              		.loc 1 71 44 is_stmt 0 view .LVU58
 400 007a 059B     		ldr	r3, [sp, #20]	@ float	@ _9, pid_config.Kd
 401              	@ Yellow_code/Alg_PID.cpp:71:         this->pid_measure_.Kd = pid_config.Kd;
  71:Yellow_code/Alg_PID.cpp ****         this->pid_measure_.Kfa = pid_config.Kfa;
 402              		.loc 1 71 31 view .LVU59
 403 007c A362     		str	r3, [r4, #40]	@ float	@ _9, this_23(D)->pid_measure_.Kd
  72:Yellow_code/Alg_PID.cpp ****         this->pid_measure_.Kfb = pid_config.Kfb;
 404              		.loc 1 72 9 is_stmt 1 view .LVU60
 405              	@ Yellow_code/Alg_PID.cpp:72:         this->pid_measure_.Kfa = pid_config.Kfa;
  72:Yellow_code/Alg_PID.cpp ****         this->pid_measure_.Kfb = pid_config.Kfb;
 406              		.loc 1 72 45 is_stmt 0 view .LVU61
 407 007e 069B     		ldr	r3, [sp, #24]	@ float	@ _10, pid_config.Kfa
 408              	@ Yellow_code/Alg_PID.cpp:72:         this->pid_measure_.Kfa = pid_config.Kfa;
  72:Yellow_code/Alg_PID.cpp ****         this->pid_measure_.Kfb = pid_config.Kfb;
 409              		.loc 1 72 32 view .LVU62
 410 0080 E362     		str	r3, [r4, #44]	@ float	@ _10, this_23(D)->pid_measure_.Kfa
  73:Yellow_code/Alg_PID.cpp ****         this->pid_measure_.mode = pid_config.mode;
 411              		.loc 1 73 9 is_stmt 1 view .LVU63
 412              	@ Yellow_code/Alg_PID.cpp:73:         this->pid_measure_.Kfb = pid_config.Kfb;
  73:Yellow_code/Alg_PID.cpp ****         this->pid_measure_.mode = pid_config.mode;
 413              		.loc 1 73 45 is_stmt 0 view .LVU64
 414 0082 079B     		ldr	r3, [sp, #28]	@ float	@ _11, pid_config.Kfb
 415              	@ Yellow_code/Alg_PID.cpp:73:         this->pid_measure_.Kfb = pid_config.Kfb;
  73:Yellow_code/Alg_PID.cpp ****         this->pid_measure_.mode = pid_config.mode;
 416              		.loc 1 73 32 view .LVU65
 417 0084 2363     		str	r3, [r4, #48]	@ float	@ _11, this_23(D)->pid_measure_.Kfb
  74:Yellow_code/Alg_PID.cpp **** 
 418              		.loc 1 74 9 is_stmt 1 view .LVU66
 419              	@ Yellow_code/Alg_PID.cpp:74:         this->pid_measure_.mode = pid_config.mode;
  74:Yellow_code/Alg_PID.cpp **** 
 420              		.loc 1 74 46 is_stmt 0 view .LVU67
 421 0086 099B     		ldr	r3, [sp, #36]	@ _12, pid_config.mode
 422              	@ Yellow_code/Alg_PID.cpp:74:         this->pid_measure_.mode = pid_config.mode;
  74:Yellow_code/Alg_PID.cpp **** 
 423              		.loc 1 74 33 view .LVU68
 424 0088 A367     		str	r3, [r4, #120]	@ _12, this_23(D)->pid_measure_.mode
  76:Yellow_code/Alg_PID.cpp **** 
 425              		.loc 1 76 9 is_stmt 1 view .LVU69
 426              	@ Yellow_code/Alg_PID.cpp:76:         this->pid_measure_.max_Ierror = pid_config.max_Ierror;
  76:Yellow_code/Alg_PID.cpp **** 
 427              		.loc 1 76 52 is_stmt 0 view .LVU70
 428 008a 0B9B     		ldr	r3, [sp, #44]	@ float	@ _13, pid_config.max_Ierror
ARM GAS  C:\Users\28212\AppData\Local\Temp\ccBXSG2d.s 			page 13


 429              	@ Yellow_code/Alg_PID.cpp:76:         this->pid_measure_.max_Ierror = pid_config.max_Ierror;
  76:Yellow_code/Alg_PID.cpp **** 
 430              		.loc 1 76 39 view .LVU71
 431 008c E367     		str	r3, [r4, #124]	@ float	@ _13, this_23(D)->pid_measure_.max_Ierror
  78:Yellow_code/Alg_PID.cpp **** 
 432              		.loc 1 78 9 is_stmt 1 view .LVU72
 433              	@ Yellow_code/Alg_PID.cpp:78:         this->pid_measure_.gama = pid_config.gama;
  78:Yellow_code/Alg_PID.cpp **** 
 434              		.loc 1 78 46 is_stmt 0 view .LVU73
 435 008e 0C9B     		ldr	r3, [sp, #48]	@ float	@ _14, pid_config.gama
 436              	@ Yellow_code/Alg_PID.cpp:78:         this->pid_measure_.gama = pid_config.gama;
  78:Yellow_code/Alg_PID.cpp **** 
 437              		.loc 1 78 33 view .LVU74
 438 0090 C4F89430 		str	r3, [r4, #148]	@ float	@ _14, this_23(D)->pid_measure_.gama
  80:Yellow_code/Alg_PID.cpp ****         this->pid_measure_.threshold_min = pid_config.errorabsmin;
 439              		.loc 1 80 9 is_stmt 1 view .LVU75
 440              	@ Yellow_code/Alg_PID.cpp:80:         this->pid_measure_.threshold_max = pid_config.threshold_max;
  80:Yellow_code/Alg_PID.cpp ****         this->pid_measure_.threshold_min = pid_config.errorabsmin;
 441              		.loc 1 80 55 is_stmt 0 view .LVU76
 442 0094 0E9B     		ldr	r3, [sp, #56]	@ float	@ _15, pid_config.threshold_max
 443              	@ Yellow_code/Alg_PID.cpp:80:         this->pid_measure_.threshold_max = pid_config.threshold_max;
  80:Yellow_code/Alg_PID.cpp ****         this->pid_measure_.threshold_min = pid_config.errorabsmin;
 444              		.loc 1 80 42 view .LVU77
 445 0096 C4F88430 		str	r3, [r4, #132]	@ float	@ _15, this_23(D)->pid_measure_.threshold_max
  81:Yellow_code/Alg_PID.cpp **** 
 446              		.loc 1 81 9 is_stmt 1 view .LVU78
 447              	@ Yellow_code/Alg_PID.cpp:81:         this->pid_measure_.threshold_min = pid_config.errorabsmin;
  81:Yellow_code/Alg_PID.cpp **** 
 448              		.loc 1 81 55 is_stmt 0 view .LVU79
 449 009a 119B     		ldr	r3, [sp, #68]	@ float	@ _16, pid_config.errorabsmin
 450              	@ Yellow_code/Alg_PID.cpp:81:         this->pid_measure_.threshold_min = pid_config.errorabsmin;
  81:Yellow_code/Alg_PID.cpp **** 
 451              		.loc 1 81 42 view .LVU80
 452 009c C4F88830 		str	r3, [r4, #136]	@ float	@ _16, this_23(D)->pid_measure_.threshold_min
  83:Yellow_code/Alg_PID.cpp **** 
 453              		.loc 1 83 9 is_stmt 1 view .LVU81
 454              	@ Yellow_code/Alg_PID.cpp:83:         this->pid_measure_.max_out = pid_config.max_out;
  83:Yellow_code/Alg_PID.cpp **** 
 455              		.loc 1 83 49 is_stmt 0 view .LVU82
 456 00a0 0A9A     		ldr	r2, [sp, #40]	@ float	@ _17, pid_config.max_out
 457              	@ Yellow_code/Alg_PID.cpp:83:         this->pid_measure_.max_out = pid_config.max_out;
  83:Yellow_code/Alg_PID.cpp **** 
 458              		.loc 1 83 36 view .LVU83
 459 00a2 6267     		str	r2, [r4, #116]	@ float	@ _17, this_23(D)->pid_measure_.max_out
  85:Yellow_code/Alg_PID.cpp ****         this->pid_measure_.errorabsmin = pid_config.errorabsmin;
 460              		.loc 1 85 9 is_stmt 1 view .LVU84
 461              	@ Yellow_code/Alg_PID.cpp:85:         this->pid_measure_.errorabsmax = pid_config.errorabsmax;
  85:Yellow_code/Alg_PID.cpp ****         this->pid_measure_.errorabsmin = pid_config.errorabsmin;
 462              		.loc 1 85 53 is_stmt 0 view .LVU85
 463 00a4 109A     		ldr	r2, [sp, #64]	@ float	@ _18, pid_config.errorabsmax
 464              	@ Yellow_code/Alg_PID.cpp:85:         this->pid_measure_.errorabsmax = pid_config.errorabsmax;
  85:Yellow_code/Alg_PID.cpp ****         this->pid_measure_.errorabsmin = pid_config.errorabsmin;
 465              		.loc 1 85 40 view .LVU86
 466 00a6 C4F88C20 		str	r2, [r4, #140]	@ float	@ _18, this_23(D)->pid_measure_.errorabsmax
  86:Yellow_code/Alg_PID.cpp **** 
 467              		.loc 1 86 9 is_stmt 1 view .LVU87
 468              	@ Yellow_code/Alg_PID.cpp:86:         this->pid_measure_.errorabsmin = pid_config.errorabsmin;
ARM GAS  C:\Users\28212\AppData\Local\Temp\ccBXSG2d.s 			page 14


  86:Yellow_code/Alg_PID.cpp **** 
 469              		.loc 1 86 40 is_stmt 0 view .LVU88
 470 00aa C4F89030 		str	r3, [r4, #144]	@ float	@ _16, this_23(D)->pid_measure_.errorabsmin
  89:Yellow_code/Alg_PID.cpp **** 
 471              		.loc 1 89 9 is_stmt 1 view .LVU89
 472              	@ Yellow_code/Alg_PID.cpp:89:         this->pid_measure_.deadband = pid_config.deadband;
  89:Yellow_code/Alg_PID.cpp **** 
 473              		.loc 1 89 50 is_stmt 0 view .LVU90
 474 00ae 0D9B     		ldr	r3, [sp, #52]	@ float	@ _19, pid_config.deadband
 475              	@ Yellow_code/Alg_PID.cpp:89:         this->pid_measure_.deadband = pid_config.deadband;
  89:Yellow_code/Alg_PID.cpp **** 
 476              		.loc 1 89 37 view .LVU91
 477 00b0 C4F88030 		str	r3, [r4, #128]	@ float	@ _19, this_23(D)->pid_measure_.deadband
  91:Yellow_code/Alg_PID.cpp ****         this->ECF_PID_CLEAR();
 478              		.loc 1 91 9 is_stmt 1 view .LVU92
 479              	@ Yellow_code/Alg_PID.cpp:91:         this->pid_measure_.stepIn = pid_config.stepIn;
  91:Yellow_code/Alg_PID.cpp ****         this->ECF_PID_CLEAR();
 480              		.loc 1 91 48 is_stmt 0 view .LVU93
 481 00b4 149B     		ldr	r3, [sp, #80]	@ float	@ _20, pid_config.stepIn
 482              	@ Yellow_code/Alg_PID.cpp:91:         this->pid_measure_.stepIn = pid_config.stepIn;
  91:Yellow_code/Alg_PID.cpp ****         this->ECF_PID_CLEAR();
 483              		.loc 1 91 35 view .LVU94
 484 00b6 C4F89830 		str	r3, [r4, #152]	@ float	@ _20, this_23(D)->pid_measure_.stepIn
  92:Yellow_code/Alg_PID.cpp ****     }
 485              		.loc 1 92 9 is_stmt 1 view .LVU95
 486              	@ Yellow_code/Alg_PID.cpp:92:         this->ECF_PID_CLEAR();
  92:Yellow_code/Alg_PID.cpp ****     }
 487              		.loc 1 92 28 is_stmt 0 view .LVU96
 488 00ba 2046     		mov	r0, r4	@, this
 489 00bc FFF7FEFF 		bl	_ZN9Algorithm9pid_alg_c13ECF_PID_CLEAREv		@
 490              	.LVL15:
 491              	.LBE19:
 492              	@ Yellow_code/Alg_PID.cpp:93:     }
  93:Yellow_code/Alg_PID.cpp **** 
 493              		.loc 1 93 5 view .LVU97
 494 00c0 2046     		mov	r0, r4	@, this
 495 00c2 BDE81040 		pop	{r4, lr}	@
 496              	.LCFI6:
 497              		.cfi_remember_state
 498              		.cfi_restore 14
 499              		.cfi_restore 4
 500              		.cfi_def_cfa_offset 16
 501              	.LVL16:
  93:Yellow_code/Alg_PID.cpp **** 
 502              		.loc 1 93 5 view .LVU98
 503 00c6 04B0     		add	sp, sp, #16	@,,
 504              	.LCFI7:
 505              		.cfi_def_cfa_offset 0
 506 00c8 7047     		bx	lr	@
 507              	.LVL17:
 508              	.L9:
 509              	.LCFI8:
 510              		.cfi_restore_state
 511              	.LBB22:
  67:Yellow_code/Alg_PID.cpp ****         }
 512              		.loc 1 67 13 is_stmt 1 view .LVU99
 513              	@ Yellow_code/Alg_PID.cpp:67:             this->ActualValueSource_ = nullptr;
ARM GAS  C:\Users\28212\AppData\Local\Temp\ccBXSG2d.s 			page 15


  67:Yellow_code/Alg_PID.cpp ****         }
 514              		.loc 1 67 38 is_stmt 0 view .LVU100
 515 00ca 0023     		movs	r3, #0	@ tmp170,
 516 00cc C4F89C30 		str	r3, [r4, #156]	@ tmp170, this_23(D)->ActualValueSource_
 517 00d0 CFE7     		b	.L10		@
 518              	.LBE22:
 519              		.cfi_endproc
 520              	.LFE8:
 521              		.size	_ZN9Algorithm9pid_alg_cC2ENS_17PID_Init_Config_tE, .-_ZN9Algorithm9pid_alg_cC2ENS_17PID_Init
 522              		.global	_ZN9Algorithm9pid_alg_cC1ENS_17PID_Init_Config_tE
 523              		.thumb_set _ZN9Algorithm9pid_alg_cC1ENS_17PID_Init_Config_tE,_ZN9Algorithm9pid_alg_cC2ENS_17PID_In
 524              		.section	.text._ZN9Algorithm9pid_alg_c8pid_initENS_17PID_Init_Config_tE,"ax",%progbits
 525              		.align	1
 526              		.global	_ZN9Algorithm9pid_alg_c8pid_initENS_17PID_Init_Config_tE
 527              		.syntax unified
 528              		.thumb
 529              		.thumb_func
 530              		.type	_ZN9Algorithm9pid_alg_c8pid_initENS_17PID_Init_Config_tE, %function
 531              	_ZN9Algorithm9pid_alg_c8pid_initENS_17PID_Init_Config_tE:
 532              	.LVL18:
 533              	.LFB13:
 107:Yellow_code/Alg_PID.cpp ****         // memset(&this->pid_measure_, 0, sizeof(pid_parameter_t));
 534              		.loc 1 107 5 is_stmt 1 view -0
 535              		.cfi_startproc
 536              		@ args = 76, pretend = 16, frame = 0
 537              		@ frame_needed = 0, uses_anonymous_args = 0
 107:Yellow_code/Alg_PID.cpp ****         // memset(&this->pid_measure_, 0, sizeof(pid_parameter_t));
 538              		.loc 1 107 5 is_stmt 0 view .LVU102
 539 0000 84B0     		sub	sp, sp, #16	@,,
 540              	.LCFI9:
 541              		.cfi_def_cfa_offset 16
 542 0002 38B5     		push	{r3, r4, r5, lr}	@
 543              	.LCFI10:
 544              		.cfi_def_cfa_offset 32
 545              		.cfi_offset 3, -32
 546              		.cfi_offset 4, -28
 547              		.cfi_offset 5, -24
 548              		.cfi_offset 14, -20
 549 0004 0446     		mov	r4, r0	@ this, tmp137
 550 0006 05A8     		add	r0, sp, #20	@ tmp133,,
 551 0008 80E80E00 		stm	r0, {r1, r2, r3}	@ tmp133,,,
 109:Yellow_code/Alg_PID.cpp ****         this->pid_measure_.Kp = pid_config.Kp;
 552              		.loc 1 109 9 is_stmt 1 view .LVU103
 553              	@ Yellow_code/Alg_PID.cpp:109:         this->ActualValueSource_ = pid_config.ActualValueSource;
 109:Yellow_code/Alg_PID.cpp ****         this->pid_measure_.Kp = pid_config.Kp;
 554              		.loc 1 109 47 is_stmt 0 view .LVU104
 555 000c 0A9B     		ldr	r3, [sp, #40]	@ _1, pid_config.ActualValueSource
 556              	@ Yellow_code/Alg_PID.cpp:109:         this->ActualValueSource_ = pid_config.ActualValueSource;
 109:Yellow_code/Alg_PID.cpp ****         this->pid_measure_.Kp = pid_config.Kp;
 557              		.loc 1 109 34 view .LVU105
 558 000e C4F89C30 		str	r3, [r4, #156]	@ _1, this_21(D)->ActualValueSource_
 110:Yellow_code/Alg_PID.cpp ****         this->pid_measure_.Ki = pid_config.Ki;
 559              		.loc 1 110 9 is_stmt 1 view .LVU106
 560              	@ Yellow_code/Alg_PID.cpp:110:         this->pid_measure_.Kp = pid_config.Kp;
 110:Yellow_code/Alg_PID.cpp ****         this->pid_measure_.Ki = pid_config.Ki;
 561              		.loc 1 110 44 is_stmt 0 view .LVU107
 562 0012 059B     		ldr	r3, [sp, #20]	@ float	@ _2, pid_config.Kp
ARM GAS  C:\Users\28212\AppData\Local\Temp\ccBXSG2d.s 			page 16


 563              	@ Yellow_code/Alg_PID.cpp:110:         this->pid_measure_.Kp = pid_config.Kp;
 110:Yellow_code/Alg_PID.cpp ****         this->pid_measure_.Ki = pid_config.Ki;
 564              		.loc 1 110 31 view .LVU108
 565 0014 2362     		str	r3, [r4, #32]	@ float	@ _2, this_21(D)->pid_measure_.Kp
 111:Yellow_code/Alg_PID.cpp ****         this->pid_measure_.Kd = pid_config.Kd;
 566              		.loc 1 111 9 is_stmt 1 view .LVU109
 567              	@ Yellow_code/Alg_PID.cpp:111:         this->pid_measure_.Ki = pid_config.Ki;
 111:Yellow_code/Alg_PID.cpp ****         this->pid_measure_.Kd = pid_config.Kd;
 568              		.loc 1 111 44 is_stmt 0 view .LVU110
 569 0016 069B     		ldr	r3, [sp, #24]	@ float	@ _3, pid_config.Ki
 570              	@ Yellow_code/Alg_PID.cpp:111:         this->pid_measure_.Ki = pid_config.Ki;
 111:Yellow_code/Alg_PID.cpp ****         this->pid_measure_.Kd = pid_config.Kd;
 571              		.loc 1 111 31 view .LVU111
 572 0018 6362     		str	r3, [r4, #36]	@ float	@ _3, this_21(D)->pid_measure_.Ki
 112:Yellow_code/Alg_PID.cpp ****         this->pid_measure_.Kfa = pid_config.Kfa;
 573              		.loc 1 112 9 is_stmt 1 view .LVU112
 574              	@ Yellow_code/Alg_PID.cpp:112:         this->pid_measure_.Kd = pid_config.Kd;
 112:Yellow_code/Alg_PID.cpp ****         this->pid_measure_.Kfa = pid_config.Kfa;
 575              		.loc 1 112 44 is_stmt 0 view .LVU113
 576 001a 079B     		ldr	r3, [sp, #28]	@ float	@ _4, pid_config.Kd
 577              	@ Yellow_code/Alg_PID.cpp:112:         this->pid_measure_.Kd = pid_config.Kd;
 112:Yellow_code/Alg_PID.cpp ****         this->pid_measure_.Kfa = pid_config.Kfa;
 578              		.loc 1 112 31 view .LVU114
 579 001c A362     		str	r3, [r4, #40]	@ float	@ _4, this_21(D)->pid_measure_.Kd
 113:Yellow_code/Alg_PID.cpp ****         this->pid_measure_.Kfb = pid_config.Kfb;
 580              		.loc 1 113 9 is_stmt 1 view .LVU115
 581              	@ Yellow_code/Alg_PID.cpp:113:         this->pid_measure_.Kfa = pid_config.Kfa;
 113:Yellow_code/Alg_PID.cpp ****         this->pid_measure_.Kfb = pid_config.Kfb;
 582              		.loc 1 113 45 is_stmt 0 view .LVU116
 583 001e 089B     		ldr	r3, [sp, #32]	@ float	@ _5, pid_config.Kfa
 584              	@ Yellow_code/Alg_PID.cpp:113:         this->pid_measure_.Kfa = pid_config.Kfa;
 113:Yellow_code/Alg_PID.cpp ****         this->pid_measure_.Kfb = pid_config.Kfb;
 585              		.loc 1 113 32 view .LVU117
 586 0020 E362     		str	r3, [r4, #44]	@ float	@ _5, this_21(D)->pid_measure_.Kfa
 114:Yellow_code/Alg_PID.cpp ****         this->pid_measure_.mode = pid_config.mode;
 587              		.loc 1 114 9 is_stmt 1 view .LVU118
 588              	@ Yellow_code/Alg_PID.cpp:114:         this->pid_measure_.Kfb = pid_config.Kfb;
 114:Yellow_code/Alg_PID.cpp ****         this->pid_measure_.mode = pid_config.mode;
 589              		.loc 1 114 45 is_stmt 0 view .LVU119
 590 0022 099B     		ldr	r3, [sp, #36]	@ float	@ _6, pid_config.Kfb
 591              	@ Yellow_code/Alg_PID.cpp:114:         this->pid_measure_.Kfb = pid_config.Kfb;
 114:Yellow_code/Alg_PID.cpp ****         this->pid_measure_.mode = pid_config.mode;
 592              		.loc 1 114 32 view .LVU120
 593 0024 2363     		str	r3, [r4, #48]	@ float	@ _6, this_21(D)->pid_measure_.Kfb
 115:Yellow_code/Alg_PID.cpp **** 
 594              		.loc 1 115 9 is_stmt 1 view .LVU121
 595              	@ Yellow_code/Alg_PID.cpp:115:         this->pid_measure_.mode = pid_config.mode;
 115:Yellow_code/Alg_PID.cpp **** 
 596              		.loc 1 115 46 is_stmt 0 view .LVU122
 597 0026 0B9B     		ldr	r3, [sp, #44]	@ _7, pid_config.mode
 598              	@ Yellow_code/Alg_PID.cpp:115:         this->pid_measure_.mode = pid_config.mode;
 115:Yellow_code/Alg_PID.cpp **** 
 599              		.loc 1 115 33 view .LVU123
 600 0028 A367     		str	r3, [r4, #120]	@ _7, this_21(D)->pid_measure_.mode
 117:Yellow_code/Alg_PID.cpp **** 
 601              		.loc 1 117 9 is_stmt 1 view .LVU124
 602              	@ Yellow_code/Alg_PID.cpp:117:         this->pid_measure_.max_Ierror = pid_config.max_Ierror;
ARM GAS  C:\Users\28212\AppData\Local\Temp\ccBXSG2d.s 			page 17


 117:Yellow_code/Alg_PID.cpp **** 
 603              		.loc 1 117 52 is_stmt 0 view .LVU125
 604 002a 0D9B     		ldr	r3, [sp, #52]	@ float	@ _8, pid_config.max_Ierror
 605              	@ Yellow_code/Alg_PID.cpp:117:         this->pid_measure_.max_Ierror = pid_config.max_Ierror;
 117:Yellow_code/Alg_PID.cpp **** 
 606              		.loc 1 117 39 view .LVU126
 607 002c E367     		str	r3, [r4, #124]	@ float	@ _8, this_21(D)->pid_measure_.max_Ierror
 119:Yellow_code/Alg_PID.cpp **** 
 608              		.loc 1 119 9 is_stmt 1 view .LVU127
 609              	@ Yellow_code/Alg_PID.cpp:119:         this->pid_measure_.gama = pid_config.gama;
 119:Yellow_code/Alg_PID.cpp **** 
 610              		.loc 1 119 46 is_stmt 0 view .LVU128
 611 002e 0E9B     		ldr	r3, [sp, #56]	@ float	@ _9, pid_config.gama
 612              	@ Yellow_code/Alg_PID.cpp:119:         this->pid_measure_.gama = pid_config.gama;
 119:Yellow_code/Alg_PID.cpp **** 
 613              		.loc 1 119 33 view .LVU129
 614 0030 C4F89430 		str	r3, [r4, #148]	@ float	@ _9, this_21(D)->pid_measure_.gama
 121:Yellow_code/Alg_PID.cpp ****         this->pid_measure_.threshold_min = pid_config.errorabsmin;
 615              		.loc 1 121 9 is_stmt 1 view .LVU130
 616              	@ Yellow_code/Alg_PID.cpp:121:         this->pid_measure_.threshold_max = pid_config.threshold_max;
 121:Yellow_code/Alg_PID.cpp ****         this->pid_measure_.threshold_min = pid_config.errorabsmin;
 617              		.loc 1 121 55 is_stmt 0 view .LVU131
 618 0034 109B     		ldr	r3, [sp, #64]	@ float	@ _10, pid_config.threshold_max
 619              	@ Yellow_code/Alg_PID.cpp:121:         this->pid_measure_.threshold_max = pid_config.threshold_max;
 121:Yellow_code/Alg_PID.cpp ****         this->pid_measure_.threshold_min = pid_config.errorabsmin;
 620              		.loc 1 121 42 view .LVU132
 621 0036 C4F88430 		str	r3, [r4, #132]	@ float	@ _10, this_21(D)->pid_measure_.threshold_max
 122:Yellow_code/Alg_PID.cpp **** 
 622              		.loc 1 122 9 is_stmt 1 view .LVU133
 623              	@ Yellow_code/Alg_PID.cpp:122:         this->pid_measure_.threshold_min = pid_config.errorabsmin;
 122:Yellow_code/Alg_PID.cpp **** 
 624              		.loc 1 122 55 is_stmt 0 view .LVU134
 625 003a 139D     		ldr	r5, [sp, #76]	@ float	@ _11, pid_config.errorabsmin
 626              	@ Yellow_code/Alg_PID.cpp:122:         this->pid_measure_.threshold_min = pid_config.errorabsmin;
 122:Yellow_code/Alg_PID.cpp **** 
 627              		.loc 1 122 42 view .LVU135
 628 003c C4F88850 		str	r5, [r4, #136]	@ float	@ _11, this_21(D)->pid_measure_.threshold_min
 124:Yellow_code/Alg_PID.cpp **** 
 629              		.loc 1 124 9 is_stmt 1 view .LVU136
 630              	@ Yellow_code/Alg_PID.cpp:124:         this->pid_measure_.max_out = pid_config.max_out;
 124:Yellow_code/Alg_PID.cpp **** 
 631              		.loc 1 124 49 is_stmt 0 view .LVU137
 632 0040 0C9B     		ldr	r3, [sp, #48]	@ float	@ _12, pid_config.max_out
 633              	@ Yellow_code/Alg_PID.cpp:124:         this->pid_measure_.max_out = pid_config.max_out;
 124:Yellow_code/Alg_PID.cpp **** 
 634              		.loc 1 124 36 view .LVU138
 635 0042 6367     		str	r3, [r4, #116]	@ float	@ _12, this_21(D)->pid_measure_.max_out
 126:Yellow_code/Alg_PID.cpp **** 
 636              		.loc 1 126 9 is_stmt 1 view .LVU139
 637              	@ Yellow_code/Alg_PID.cpp:126:         this->out_filter.first_order_filter_init(pid_config.out_filt
 126:Yellow_code/Alg_PID.cpp **** 
 638              		.loc 1 126 49 is_stmt 0 view .LVU140
 639 0044 9DED150A 		vldr.32	s0, [sp, #84]	@, pid_config.out_filter_num
 640 0048 04F11000 		add	r0, r4, #16	@, this,
 641              	.LVL19:
 126:Yellow_code/Alg_PID.cpp **** 
 642              		.loc 1 126 49 view .LVU141
ARM GAS  C:\Users\28212\AppData\Local\Temp\ccBXSG2d.s 			page 18


 643 004c FFF7FEFF 		bl	_ZN9Algorithm20first_order_filter_c23first_order_filter_initEf		@
 644              	.LVL20:
 128:Yellow_code/Alg_PID.cpp ****         this->pid_measure_.errorabsmin = pid_config.errorabsmin;
 645              		.loc 1 128 9 is_stmt 1 view .LVU142
 646              	@ Yellow_code/Alg_PID.cpp:128:         this->pid_measure_.errorabsmax = pid_config.errorabsmax;
 128:Yellow_code/Alg_PID.cpp ****         this->pid_measure_.errorabsmin = pid_config.errorabsmin;
 647              		.loc 1 128 53 is_stmt 0 view .LVU143
 648 0050 129B     		ldr	r3, [sp, #72]	@ float	@ _15, pid_config.errorabsmax
 649              	@ Yellow_code/Alg_PID.cpp:128:         this->pid_measure_.errorabsmax = pid_config.errorabsmax;
 128:Yellow_code/Alg_PID.cpp ****         this->pid_measure_.errorabsmin = pid_config.errorabsmin;
 650              		.loc 1 128 40 view .LVU144
 651 0052 C4F88C30 		str	r3, [r4, #140]	@ float	@ _15, this_21(D)->pid_measure_.errorabsmax
 129:Yellow_code/Alg_PID.cpp **** 
 652              		.loc 1 129 9 is_stmt 1 view .LVU145
 653              	@ Yellow_code/Alg_PID.cpp:129:         this->pid_measure_.errorabsmin = pid_config.errorabsmin;
 129:Yellow_code/Alg_PID.cpp **** 
 654              		.loc 1 129 40 is_stmt 0 view .LVU146
 655 0056 C4F89050 		str	r5, [r4, #144]	@ float	@ _11, this_21(D)->pid_measure_.errorabsmin
 131:Yellow_code/Alg_PID.cpp **** 
 656              		.loc 1 131 9 is_stmt 1 view .LVU147
 657              	@ Yellow_code/Alg_PID.cpp:131:         this->d_filter.first_order_filter_init(pid_config.d_filter_n
 131:Yellow_code/Alg_PID.cpp **** 
 658              		.loc 1 131 47 is_stmt 0 view .LVU148
 659 005a 9DED140A 		vldr.32	s0, [sp, #80]	@, pid_config.d_filter_num
 660 005e 2046     		mov	r0, r4	@, this
 661 0060 FFF7FEFF 		bl	_ZN9Algorithm20first_order_filter_c23first_order_filter_initEf		@
 662              	.LVL21:
 133:Yellow_code/Alg_PID.cpp **** 
 663              		.loc 1 133 9 is_stmt 1 view .LVU149
 664              	@ Yellow_code/Alg_PID.cpp:133:         this->pid_measure_.deadband = pid_config.deadband;
 133:Yellow_code/Alg_PID.cpp **** 
 665              		.loc 1 133 50 is_stmt 0 view .LVU150
 666 0064 0F9B     		ldr	r3, [sp, #60]	@ float	@ _18, pid_config.deadband
 667              	@ Yellow_code/Alg_PID.cpp:133:         this->pid_measure_.deadband = pid_config.deadband;
 133:Yellow_code/Alg_PID.cpp **** 
 668              		.loc 1 133 37 view .LVU151
 669 0066 C4F88030 		str	r3, [r4, #128]	@ float	@ _18, this_21(D)->pid_measure_.deadband
 135:Yellow_code/Alg_PID.cpp ****         this->ECF_PID_CLEAR();
 670              		.loc 1 135 9 is_stmt 1 view .LVU152
 671              	@ Yellow_code/Alg_PID.cpp:135:         this->pid_measure_.stepIn = pid_config.stepIn;
 135:Yellow_code/Alg_PID.cpp ****         this->ECF_PID_CLEAR();
 672              		.loc 1 135 48 is_stmt 0 view .LVU153
 673 006a 169B     		ldr	r3, [sp, #88]	@ float	@ _19, pid_config.stepIn
 674              	@ Yellow_code/Alg_PID.cpp:135:         this->pid_measure_.stepIn = pid_config.stepIn;
 135:Yellow_code/Alg_PID.cpp ****         this->ECF_PID_CLEAR();
 675              		.loc 1 135 35 view .LVU154
 676 006c C4F89830 		str	r3, [r4, #152]	@ float	@ _19, this_21(D)->pid_measure_.stepIn
 136:Yellow_code/Alg_PID.cpp ****     }
 677              		.loc 1 136 9 is_stmt 1 view .LVU155
 678              	@ Yellow_code/Alg_PID.cpp:136:         this->ECF_PID_CLEAR();
 136:Yellow_code/Alg_PID.cpp ****     }
 679              		.loc 1 136 28 is_stmt 0 view .LVU156
 680 0070 2046     		mov	r0, r4	@, this
 681 0072 FFF7FEFF 		bl	_ZN9Algorithm9pid_alg_c13ECF_PID_CLEAREv		@
 682              	.LVL22:
 683              	@ Yellow_code/Alg_PID.cpp:137:     }
 137:Yellow_code/Alg_PID.cpp **** 
ARM GAS  C:\Users\28212\AppData\Local\Temp\ccBXSG2d.s 			page 19


 684              		.loc 1 137 5 view .LVU157
 685 0076 BDE83840 		pop	{r3, r4, r5, lr}	@
 686              	.LCFI11:
 687              		.cfi_restore 14
 688              		.cfi_restore 5
 689              		.cfi_restore 4
 690              		.cfi_restore 3
 691              		.cfi_def_cfa_offset 16
 692              	.LVL23:
 137:Yellow_code/Alg_PID.cpp **** 
 693              		.loc 1 137 5 view .LVU158
 694 007a 04B0     		add	sp, sp, #16	@,,
 695              	.LCFI12:
 696              		.cfi_def_cfa_offset 0
 697 007c 7047     		bx	lr	@
 698              		.cfi_endproc
 699              	.LFE13:
 700              		.size	_ZN9Algorithm9pid_alg_c8pid_initENS_17PID_Init_Config_tE, .-_ZN9Algorithm9pid_alg_c8pid_init
 701              		.section	.text._ZN8UserMath3absIfEET_S1_,"axG",%progbits,_ZN8UserMath3absIfEET_S1_,comdat
 702              		.align	1
 703              		.weak	_ZN8UserMath3absIfEET_S1_
 704              		.syntax unified
 705              		.thumb
 706              		.thumb_func
 707              		.type	_ZN8UserMath3absIfEET_S1_, %function
 708              	_ZN8UserMath3absIfEET_S1_:
 709              	.LVL24:
 710              	.LFB24:
 711              		.file 3 "Yellow_code/user_maths.hpp"
   1:Yellow_code/user_maths.hpp **** #ifndef __MATHS_H
   2:Yellow_code/user_maths.hpp **** #define __MATHS_H
   3:Yellow_code/user_maths.hpp **** 
   4:Yellow_code/user_maths.hpp **** #include <cstdint>
   5:Yellow_code/user_maths.hpp **** 
   6:Yellow_code/user_maths.hpp **** namespace UserMath
   7:Yellow_code/user_maths.hpp **** {
   8:Yellow_code/user_maths.hpp **** 
   9:Yellow_code/user_maths.hpp **** #ifndef PI
  10:Yellow_code/user_maths.hpp **** #define PI 3.14159265358979f
  11:Yellow_code/user_maths.hpp **** #endif
  12:Yellow_code/user_maths.hpp **** 
  13:Yellow_code/user_maths.hpp ****     //运动加速度限制斜坡函数
  14:Yellow_code/user_maths.hpp ****     typedef struct
  15:Yellow_code/user_maths.hpp ****     {
  16:Yellow_code/user_maths.hpp ****         float Input;     //当前取样值
  17:Yellow_code/user_maths.hpp ****         float Last_Input;//上次取样值
  18:Yellow_code/user_maths.hpp ****         float Output;    //输出值
  19:Yellow_code/user_maths.hpp ****         float acc_now;   //当前加速度
  20:Yellow_code/user_maths.hpp ****         float acc_limit; //需要限制的加速度
  21:Yellow_code/user_maths.hpp ****     } acceleration_control_type_t;
  22:Yellow_code/user_maths.hpp **** 
  23:Yellow_code/user_maths.hpp ****     /**
  24:Yellow_code/user_maths.hpp ****      * 绝对值
  25:Yellow_code/user_maths.hpp ****      */
  26:Yellow_code/user_maths.hpp ****     template<class T>
  27:Yellow_code/user_maths.hpp ****     T abs(T x)
 712              		.loc 3 27 7 is_stmt 1 view -0
ARM GAS  C:\Users\28212\AppData\Local\Temp\ccBXSG2d.s 			page 20


 713              		.cfi_startproc
 714              		@ args = 0, pretend = 0, frame = 0
 715              		@ frame_needed = 0, uses_anonymous_args = 0
 716              		@ link register save eliminated.
 717              	@ Yellow_code/user_maths.hpp:29:         return x > 0 ? x : -x;
  28:Yellow_code/user_maths.hpp ****     {
  29:Yellow_code/user_maths.hpp ****         return x > 0 ? x : -x;
 718              		.loc 3 29 22 is_stmt 0 view .LVU160
 719 0000 B5EEC00A 		vcmpe.f32	s0, #0	@ x
 720 0004 F1EE10FA 		vmrs	APSR_nzcv, FPSCR
 721 0008 00DD     		ble	.L16		@,
 722              	.LVL25:
 723              	.L15:
 724              	@ Yellow_code/user_maths.hpp:30:     }
  30:Yellow_code/user_maths.hpp ****     }
 725              		.loc 3 30 5 discriminator 4 view .LVU161
 726 000a 7047     		bx	lr	@
 727              	.LVL26:
 728              	.L16:
 729              	@ Yellow_code/user_maths.hpp:29:         return x > 0 ? x : -x;
  29:Yellow_code/user_maths.hpp ****     }
 730              		.loc 3 29 22 discriminator 2 view .LVU162
 731 000c B1EE400A 		vneg.f32	s0, s0	@ x, x
 732              	.LVL27:
  29:Yellow_code/user_maths.hpp ****     }
 733              		.loc 3 29 22 discriminator 2 view .LVU163
 734 0010 FBE7     		b	.L15		@
 735              		.cfi_endproc
 736              	.LFE24:
 737              		.size	_ZN8UserMath3absIfEET_S1_, .-_ZN8UserMath3absIfEET_S1_
 738              		.section	.text._ZN9Algorithm9pid_alg_c17ECF_PID_CalculateEf,"ax",%progbits
 739              		.align	1
 740              		.global	_ZN9Algorithm9pid_alg_c17ECF_PID_CalculateEf
 741              		.syntax unified
 742              		.thumb
 743              		.thumb_func
 744              		.type	_ZN9Algorithm9pid_alg_c17ECF_PID_CalculateEf, %function
 745              	_ZN9Algorithm9pid_alg_c17ECF_PID_CalculateEf:
 746              	.LVL28:
 747              	.LFB16:
 163:Yellow_code/Alg_PID.cpp **** 
 164:Yellow_code/Alg_PID.cpp ****     /**
 165:Yellow_code/Alg_PID.cpp ****      * @brief          PID通用计算
 166:Yellow_code/Alg_PID.cpp ****      * @param[in]      设定参考值
 167:Yellow_code/Alg_PID.cpp ****      * @retval         none
 168:Yellow_code/Alg_PID.cpp ****      */
 169:Yellow_code/Alg_PID.cpp ****     float pid_alg_c::ECF_PID_Calculate(float SetValuew)
 170:Yellow_code/Alg_PID.cpp ****     {
 748              		.loc 1 170 5 is_stmt 1 view -0
 749              		.cfi_startproc
 750              		@ args = 0, pretend = 0, frame = 0
 751              		@ frame_needed = 0, uses_anonymous_args = 0
 752              		.loc 1 170 5 is_stmt 0 view .LVU165
 753 0000 38B5     		push	{r3, r4, r5, lr}	@
 754              	.LCFI13:
 755              		.cfi_def_cfa_offset 16
 756              		.cfi_offset 3, -16
ARM GAS  C:\Users\28212\AppData\Local\Temp\ccBXSG2d.s 			page 21


 757              		.cfi_offset 4, -12
 758              		.cfi_offset 5, -8
 759              		.cfi_offset 14, -4
 760 0002 2DED048B 		vpush.64	{d8, d9}	@
 761              	.LCFI14:
 762              		.cfi_def_cfa_offset 32
 763              		.cfi_offset 80, -32
 764              		.cfi_offset 81, -28
 765              		.cfi_offset 82, -24
 766              		.cfi_offset 83, -20
 767 0006 0446     		mov	r4, r0	@ this, tmp238
 171:Yellow_code/Alg_PID.cpp ****         float thiserr = 0;//积分增值
 768              		.loc 1 171 9 is_stmt 1 view .LVU166
 769              	.LVL29:
 172:Yellow_code/Alg_PID.cpp **** 
 173:Yellow_code/Alg_PID.cpp ****         this->pid_measure_.SetValue = SetValuew;
 770              		.loc 1 173 9 view .LVU167
 771              	@ Yellow_code/Alg_PID.cpp:173:         this->pid_measure_.SetValue = SetValuew;
 772              		.loc 1 173 37 is_stmt 0 view .LVU168
 773 0008 80ED0D0A 		vstr.32	s0, [r0, #52]	@ tmp239, this_66(D)->pid_measure_.SetValue
 174:Yellow_code/Alg_PID.cpp **** 
 175:Yellow_code/Alg_PID.cpp ****         // 步进式pid
 176:Yellow_code/Alg_PID.cpp ****         if (this->pid_measure_.mode & StepIn)
 774              		.loc 1 176 9 is_stmt 1 view .LVU169
 775              	@ Yellow_code/Alg_PID.cpp:176:         if (this->pid_measure_.mode & StepIn)
 776              		.loc 1 176 32 is_stmt 0 view .LVU170
 777 000c 836F     		ldr	r3, [r0, #120]	@ _1, this_66(D)->pid_measure_.mode
 778              	@ Yellow_code/Alg_PID.cpp:176:         if (this->pid_measure_.mode & StepIn)
 779              		.loc 1 176 9 view .LVU171
 780 000e 13F4807F 		tst	r3, #256	@ _1,
 781 0012 40F0D080 		bne	.L59		@,
 782              	.LVL30:
 783              	.L18:
 177:Yellow_code/Alg_PID.cpp ****             this->f_StepIn();
 178:Yellow_code/Alg_PID.cpp **** 
 179:Yellow_code/Alg_PID.cpp ****         this->pid_measure_.ActualValue = *this->ActualValueSource_;
 784              		.loc 1 179 9 is_stmt 1 view .LVU172
 785              	@ Yellow_code/Alg_PID.cpp:179:         this->pid_measure_.ActualValue = *this->ActualValueSource_;
 786              		.loc 1 179 49 is_stmt 0 view .LVU173
 787 0016 D4F89C30 		ldr	r3, [r4, #156]	@ _3, this_66(D)->ActualValueSource_
 788              	@ Yellow_code/Alg_PID.cpp:179:         this->pid_measure_.ActualValue = *this->ActualValueSource_;
 789              		.loc 1 179 42 view .LVU174
 790 001a D3ED007A 		vldr.32	s15, [r3]	@ _4, *_3
 791              	@ Yellow_code/Alg_PID.cpp:179:         this->pid_measure_.ActualValue = *this->ActualValueSource_;
 792              		.loc 1 179 40 view .LVU175
 793 001e C4ED107A 		vstr.32	s15, [r4, #64]	@ _4, this_66(D)->pid_measure_.ActualValue
 180:Yellow_code/Alg_PID.cpp **** 
 181:Yellow_code/Alg_PID.cpp ****         this->pid_measure_.error = this->pid_measure_.SetValue - this->pid_measure_.ActualValue;
 794              		.loc 1 181 9 is_stmt 1 view .LVU176
 795              	@ Yellow_code/Alg_PID.cpp:181:         this->pid_measure_.error = this->pid_measure_.SetValue - thi
 796              		.loc 1 181 55 is_stmt 0 view .LVU177
 797 0022 94ED0D8A 		vldr.32	s16, [r4, #52]	@ _5, this_66(D)->pid_measure_.SetValue
 798              	@ Yellow_code/Alg_PID.cpp:181:         this->pid_measure_.error = this->pid_measure_.SetValue - thi
 799              		.loc 1 181 64 view .LVU178
 800 0026 38EE678A 		vsub.f32	s16, s16, s15	@ thiserr, _5, _4
 801              	@ Yellow_code/Alg_PID.cpp:181:         this->pid_measure_.error = this->pid_measure_.SetValue - thi
 802              		.loc 1 181 34 view .LVU179
ARM GAS  C:\Users\28212\AppData\Local\Temp\ccBXSG2d.s 			page 22


 803 002a 84ED1B8A 		vstr.32	s16, [r4, #108]	@ thiserr, this_66(D)->pid_measure_.error
 182:Yellow_code/Alg_PID.cpp **** 
 183:Yellow_code/Alg_PID.cpp ****         this->pid_measure_.Derror = this->pid_measure_.error - this->pid_measure_.LastError;
 804              		.loc 1 183 9 is_stmt 1 view .LVU180
 805              	@ Yellow_code/Alg_PID.cpp:183:         this->pid_measure_.Derror = this->pid_measure_.error - this-
 806              		.loc 1 183 83 is_stmt 0 view .LVU181
 807 002e 94ED1C9A 		vldr.32	s18, [r4, #112]	@ _7, this_66(D)->pid_measure_.LastError
 808              	@ Yellow_code/Alg_PID.cpp:183:         this->pid_measure_.Derror = this->pid_measure_.error - this-
 809              		.loc 1 183 62 view .LVU182
 810 0032 78EE498A 		vsub.f32	s17, s16, s18	@ _8, thiserr, _7
 811              	@ Yellow_code/Alg_PID.cpp:183:         this->pid_measure_.Derror = this->pid_measure_.error - this-
 812              		.loc 1 183 35 view .LVU183
 813 0036 C4ED188A 		vstr.32	s17, [r4, #96]	@ _8, this_66(D)->pid_measure_.Derror
 184:Yellow_code/Alg_PID.cpp ****         if (UserMath::abs(this->pid_measure_.error) >= this->pid_measure_.deadband)//死区
 814              		.loc 1 184 9 is_stmt 1 view .LVU184
 815              	@ Yellow_code/Alg_PID.cpp:184:         if (UserMath::abs(this->pid_measure_.error) >= this->pid_mea
 816              		.loc 1 184 26 is_stmt 0 view .LVU185
 817 003a B0EE480A 		vmov.f32	s0, s16	@, thiserr
 818 003e FFF7FEFF 		bl	_ZN8UserMath3absIfEET_S1_		@
 819              	.LVL31:
 820              	@ Yellow_code/Alg_PID.cpp:184:         if (UserMath::abs(this->pid_measure_.error) >= this->pid_mea
 821              		.loc 1 184 75 view .LVU186
 822 0042 D4ED207A 		vldr.32	s15, [r4, #128]	@ _10, this_66(D)->pid_measure_.deadband
 823              	@ Yellow_code/Alg_PID.cpp:184:         if (UserMath::abs(this->pid_measure_.error) >= this->pid_mea
 824              		.loc 1 184 9 view .LVU187
 825 0046 B4EEE70A 		vcmpe.f32	s0, s15	@ tmp241, _10
 826 004a F1EE10FA 		vmrs	APSR_nzcv, FPSCR
 827 004e C0F23381 		blt	.L57		@,
 185:Yellow_code/Alg_PID.cpp ****         {
 186:Yellow_code/Alg_PID.cpp ****             this->pid_measure_.Pout = this->pid_measure_.error * this->pid_measure_.Kp;
 828              		.loc 1 186 13 is_stmt 1 view .LVU188
 829              	@ Yellow_code/Alg_PID.cpp:186:             this->pid_measure_.Pout = this->pid_measure_.error * thi
 830              		.loc 1 186 85 is_stmt 0 view .LVU189
 831 0052 D4ED087A 		vldr.32	s15, [r4, #32]	@ _11, this_66(D)->pid_measure_.Kp
 832              	@ Yellow_code/Alg_PID.cpp:186:             this->pid_measure_.Pout = this->pid_measure_.error * thi
 833              		.loc 1 186 64 view .LVU190
 834 0056 68EE277A 		vmul.f32	s15, s16, s15	@ _12, thiserr, _11
 835              	@ Yellow_code/Alg_PID.cpp:186:             this->pid_measure_.Pout = this->pid_measure_.error * thi
 836              		.loc 1 186 37 view .LVU191
 837 005a C4ED137A 		vstr.32	s15, [r4, #76]	@ _12, this_66(D)->pid_measure_.Pout
 187:Yellow_code/Alg_PID.cpp ****             //梯形积分
 188:Yellow_code/Alg_PID.cpp ****             if (this->pid_measure_.mode & Trapezoid_integral)
 838              		.loc 1 188 13 is_stmt 1 view .LVU192
 839              	@ Yellow_code/Alg_PID.cpp:188:             if (this->pid_measure_.mode & Trapezoid_integral)
 840              		.loc 1 188 36 is_stmt 0 view .LVU193
 841 005e A36F     		ldr	r3, [r4, #120]	@ _13, this_66(D)->pid_measure_.mode
 842              	@ Yellow_code/Alg_PID.cpp:188:             if (this->pid_measure_.mode & Trapezoid_integral)
 843              		.loc 1 188 13 view .LVU194
 844 0060 13F4007F 		tst	r3, #512	@ _13,
 845 0064 05D0     		beq	.L24		@,
 189:Yellow_code/Alg_PID.cpp ****                 thiserr = (this->pid_measure_.error + this->pid_measure_.LastError) / 2;
 846              		.loc 1 189 17 is_stmt 1 view .LVU195
 847              	@ Yellow_code/Alg_PID.cpp:189:                 thiserr = (this->pid_measure_.error + this->pid_meas
 848              		.loc 1 189 53 is_stmt 0 view .LVU196
 849 0066 38EE098A 		vadd.f32	s16, s16, s18	@ _15, thiserr, _7
 850              	@ Yellow_code/Alg_PID.cpp:189:                 thiserr = (this->pid_measure_.error + this->pid_meas
 851              		.loc 1 189 25 view .LVU197
ARM GAS  C:\Users\28212\AppData\Local\Temp\ccBXSG2d.s 			page 23


 852 006a F6EE007A 		vmov.f32	s15, #5.0e-1	@ tmp227,
 853 006e 28EE278A 		vmul.f32	s16, s16, s15	@ thiserr, _15, tmp227
 854              	.LVL32:
 855              	.L24:
 190:Yellow_code/Alg_PID.cpp ****             else
 191:Yellow_code/Alg_PID.cpp ****                 thiserr = this->pid_measure_.error;
 192:Yellow_code/Alg_PID.cpp **** 
 193:Yellow_code/Alg_PID.cpp ****             // 微分先行
 194:Yellow_code/Alg_PID.cpp ****             if (this->pid_measure_.mode & Derivative_On_Measurement)
 856              		.loc 1 194 13 is_stmt 1 view .LVU198
 857 0072 13F0080F 		tst	r3, #8	@ _13,
 858 0076 40F0C380 		bne	.L60		@,
 195:Yellow_code/Alg_PID.cpp ****                 this->f_Derivative_On_Measurement();
 196:Yellow_code/Alg_PID.cpp ****             else
 197:Yellow_code/Alg_PID.cpp ****                 this->pid_measure_.Dout = this->pid_measure_.Kd * this->pid_measure_.Derror;
 859              		.loc 1 197 17 view .LVU199
 860              	@ Yellow_code/Alg_PID.cpp:197:                 this->pid_measure_.Dout = this->pid_measure_.Kd * th
 861              		.loc 1 197 62 is_stmt 0 view .LVU200
 862 007a D4ED0A7A 		vldr.32	s15, [r4, #40]	@ _17, this_66(D)->pid_measure_.Kd
 863              	@ Yellow_code/Alg_PID.cpp:197:                 this->pid_measure_.Dout = this->pid_measure_.Kd * th
 864              		.loc 1 197 65 view .LVU201
 865 007e 68EEA78A 		vmul.f32	s17, s17, s15	@ _18, _8, _17
 866              	@ Yellow_code/Alg_PID.cpp:197:                 this->pid_measure_.Dout = this->pid_measure_.Kd * th
 867              		.loc 1 197 41 view .LVU202
 868 0082 C4ED158A 		vstr.32	s17, [r4, #84]	@ _18, this_66(D)->pid_measure_.Dout
 869              	.L26:
 198:Yellow_code/Alg_PID.cpp **** 
 199:Yellow_code/Alg_PID.cpp ****             // 变积分
 200:Yellow_code/Alg_PID.cpp ****             if (this->pid_measure_.mode & ChangingIntegrationRate)
 870              		.loc 1 200 13 is_stmt 1 view .LVU203
 871              	@ Yellow_code/Alg_PID.cpp:200:             if (this->pid_measure_.mode & ChangingIntegrationRate)
 872              		.loc 1 200 36 is_stmt 0 view .LVU204
 873 0086 A56F     		ldr	r5, [r4, #120]	@ _19, this_66(D)->pid_measure_.mode
 874              	@ Yellow_code/Alg_PID.cpp:200:             if (this->pid_measure_.mode & ChangingIntegrationRate)
 875              		.loc 1 200 13 view .LVU205
 876 0088 15F0200F 		tst	r5, #32	@ _19,
 877 008c 00F0E380 		beq	.L27		@,
 201:Yellow_code/Alg_PID.cpp ****                 this->pid_measure_.Ierror += thiserr * this->Changing_Integration_Rate();
 878              		.loc 1 201 17 is_stmt 1 view .LVU206
 879              	.LVL33:
 880              	.LBB37:
 881              	.LBI37:
 202:Yellow_code/Alg_PID.cpp ****             else
 203:Yellow_code/Alg_PID.cpp ****                 this->pid_measure_.Ierror += thiserr;
 204:Yellow_code/Alg_PID.cpp **** 
 205:Yellow_code/Alg_PID.cpp **** 
 206:Yellow_code/Alg_PID.cpp ****             // 积分限幅
 207:Yellow_code/Alg_PID.cpp ****             if (this->pid_measure_.mode & Integral_Limit)
 208:Yellow_code/Alg_PID.cpp ****                 this->f_Integral_Limit();
 209:Yellow_code/Alg_PID.cpp ****             this->pid_measure_.Iout = this->pid_measure_.Ki * this->pid_measure_.Ierror;
 210:Yellow_code/Alg_PID.cpp **** 
 211:Yellow_code/Alg_PID.cpp ****             // 积分分离 注意需要放在iout计算后
 212:Yellow_code/Alg_PID.cpp ****             if (this->pid_measure_.mode & Separated_Integral)
 213:Yellow_code/Alg_PID.cpp ****                 this->f_Separated_Integral();
 214:Yellow_code/Alg_PID.cpp **** 
 215:Yellow_code/Alg_PID.cpp ****             // 微分滤波
 216:Yellow_code/Alg_PID.cpp ****             if (this->pid_measure_.mode & DerivativeFilter)
ARM GAS  C:\Users\28212\AppData\Local\Temp\ccBXSG2d.s 			page 24


 217:Yellow_code/Alg_PID.cpp ****                 this->pid_measure_.Dout = this->d_filter.first_order_filter(this->pid_measure_.Dout
 218:Yellow_code/Alg_PID.cpp **** 
 219:Yellow_code/Alg_PID.cpp ****             //前馈控制器
 220:Yellow_code/Alg_PID.cpp ****             if (this->pid_measure_.mode & Feedforward)
 221:Yellow_code/Alg_PID.cpp ****                 this->f_feedforward();
 222:Yellow_code/Alg_PID.cpp **** 
 223:Yellow_code/Alg_PID.cpp ****             this->pid_measure_.out = this->pid_measure_.Pout + this->pid_measure_.Iout + this->pid_
 224:Yellow_code/Alg_PID.cpp **** 
 225:Yellow_code/Alg_PID.cpp ****             // 输出滤波
 226:Yellow_code/Alg_PID.cpp ****             if (this->pid_measure_.mode & OutputFilter)
 227:Yellow_code/Alg_PID.cpp ****                 this->pid_measure_.out = this->out_filter.first_order_filter(this->pid_measure_.out
 228:Yellow_code/Alg_PID.cpp **** 
 229:Yellow_code/Alg_PID.cpp ****             // 输出限幅
 230:Yellow_code/Alg_PID.cpp ****             if (this->pid_measure_.mode & Output_Limit)
 231:Yellow_code/Alg_PID.cpp ****                 this->f_Output_Limit();
 232:Yellow_code/Alg_PID.cpp ****         }
 233:Yellow_code/Alg_PID.cpp ****         else
 234:Yellow_code/Alg_PID.cpp ****         {
 235:Yellow_code/Alg_PID.cpp ****             this->ECF_PID_CLEAR();
 236:Yellow_code/Alg_PID.cpp ****         }
 237:Yellow_code/Alg_PID.cpp **** 
 238:Yellow_code/Alg_PID.cpp ****         //数据更新
 239:Yellow_code/Alg_PID.cpp ****         this->pid_measure_.LastActualValue = this->pid_measure_.ActualValue;
 240:Yellow_code/Alg_PID.cpp ****         this->pid_measure_.PerrSetValue = this->pid_measure_.LastSetValue;
 241:Yellow_code/Alg_PID.cpp ****         this->pid_measure_.LastSetValue = this->pid_measure_.SetValue;
 242:Yellow_code/Alg_PID.cpp ****         this->pid_measure_.LastDerror = this->pid_measure_.Derror;
 243:Yellow_code/Alg_PID.cpp ****         this->pid_measure_.LastError = this->pid_measure_.error;
 244:Yellow_code/Alg_PID.cpp **** 
 245:Yellow_code/Alg_PID.cpp ****         return this->pid_measure_.out;
 246:Yellow_code/Alg_PID.cpp ****     }
 247:Yellow_code/Alg_PID.cpp **** 
 248:Yellow_code/Alg_PID.cpp **** 
 249:Yellow_code/Alg_PID.cpp ****     /**
 250:Yellow_code/Alg_PID.cpp ****      * @brief          积分分离
 251:Yellow_code/Alg_PID.cpp ****      * @retval         none
 252:Yellow_code/Alg_PID.cpp ****      * @note           error值超过阈值的时候把iout清零就行
 253:Yellow_code/Alg_PID.cpp ****      * @note           当设定值和参考值差别过大时, 只使用 PD 控制
 254:Yellow_code/Alg_PID.cpp ****      */
 255:Yellow_code/Alg_PID.cpp ****     void pid_alg_c::f_Separated_Integral(void)
 256:Yellow_code/Alg_PID.cpp ****     {
 257:Yellow_code/Alg_PID.cpp ****         if (this->pid_measure_.threshold_min > this->pid_measure_.error && this->pid_measure_.error
 258:Yellow_code/Alg_PID.cpp ****             this->pid_measure_.Iout = 0;
 259:Yellow_code/Alg_PID.cpp ****     }
 260:Yellow_code/Alg_PID.cpp **** 
 261:Yellow_code/Alg_PID.cpp **** 
 262:Yellow_code/Alg_PID.cpp ****     /**
 263:Yellow_code/Alg_PID.cpp ****      * @brief          积分限幅
 264:Yellow_code/Alg_PID.cpp ****      * @retval         none
 265:Yellow_code/Alg_PID.cpp ****      * @note      防止积分误差值(Ierror)超过限幅
 266:Yellow_code/Alg_PID.cpp ****      */
 267:Yellow_code/Alg_PID.cpp ****     void pid_alg_c::f_Integral_Limit(void)
 268:Yellow_code/Alg_PID.cpp ****     {
 269:Yellow_code/Alg_PID.cpp ****         if (this->pid_measure_.Ierror > this->pid_measure_.max_Ierror)
 270:Yellow_code/Alg_PID.cpp ****         {
 271:Yellow_code/Alg_PID.cpp ****             this->pid_measure_.Ierror = this->pid_measure_.max_Ierror;
 272:Yellow_code/Alg_PID.cpp ****         }
 273:Yellow_code/Alg_PID.cpp ****         if (this->pid_measure_.Ierror < -(this->pid_measure_.max_Ierror))
ARM GAS  C:\Users\28212\AppData\Local\Temp\ccBXSG2d.s 			page 25


 274:Yellow_code/Alg_PID.cpp ****         {
 275:Yellow_code/Alg_PID.cpp ****             this->pid_measure_.Ierror = -(this->pid_measure_.max_Ierror);
 276:Yellow_code/Alg_PID.cpp ****         }
 277:Yellow_code/Alg_PID.cpp ****     }
 278:Yellow_code/Alg_PID.cpp **** 
 279:Yellow_code/Alg_PID.cpp ****     /**
 280:Yellow_code/Alg_PID.cpp ****      * @brief          微分先行
 281:Yellow_code/Alg_PID.cpp ****      * @retval         none
 282:Yellow_code/Alg_PID.cpp ****      * @attention      //似乎存在问题 详见 https://blog.csdn.net/foxclever/article/details/
 283:Yellow_code/Alg_PID.cpp ****      *                 问题似乎是原文c3符号的问题，评论区有争议，查阅其他
 284:Yellow_code/Alg_PID.cpp ****      *https://wenku.baidu.com/view/17078d1bb91aa8114431b90d6c85ec3a87c28bbb?aggId=820bd2e1581b6bd97
 285:Yellow_code/Alg_PID.cpp ****      */
 286:Yellow_code/Alg_PID.cpp ****     void pid_alg_c::f_Derivative_On_Measurement(void)
 287:Yellow_code/Alg_PID.cpp ****     {
 288:Yellow_code/Alg_PID.cpp ****         float c1, c2, c3, temp;
 289:Yellow_code/Alg_PID.cpp **** 
 290:Yellow_code/Alg_PID.cpp ****         temp = this->pid_measure_.gama * this->pid_measure_.Kd + this->pid_measure_.Kp;
 291:Yellow_code/Alg_PID.cpp ****         c3 = this->pid_measure_.Kd / temp;
 292:Yellow_code/Alg_PID.cpp ****         c2 = (this->pid_measure_.Kd + this->pid_measure_.Kp) / temp;
 293:Yellow_code/Alg_PID.cpp ****         c1 = this->pid_measure_.gama * c3;
 294:Yellow_code/Alg_PID.cpp ****         this->pid_measure_.Dout = c1 * this->pid_measure_.Dout + c2 * this->pid_measure_.ActualValu
 295:Yellow_code/Alg_PID.cpp ****     }
 296:Yellow_code/Alg_PID.cpp **** 
 297:Yellow_code/Alg_PID.cpp **** 
 298:Yellow_code/Alg_PID.cpp ****     /**
 299:Yellow_code/Alg_PID.cpp ****      * @brief           变积分系数处理函数，实现一个输出0和1之间的分段线性
 300:Yellow_code/Alg_PID.cpp ****      * @param[in]       pid结构体
 301:Yellow_code/Alg_PID.cpp ****      * @retval          积分增值系数
 302:Yellow_code/Alg_PID.cpp ****      * @note            当偏差的绝对值小于最小值时，输出为1；当偏差的绝对
 303:Yellow_code/Alg_PID.cpp ****      * @note            当偏差的绝对值介于最大值和最小值之间时，输出在0和1
 304:Yellow_code/Alg_PID.cpp ****      * @note            系统偏差大时，对积分作用减弱甚至是全无，而在偏差小
 305:Yellow_code/Alg_PID.cpp ****      */
 306:Yellow_code/Alg_PID.cpp ****     float pid_alg_c::Changing_Integration_Rate(void)
 882              		.loc 1 306 11 view .LVU207
 883              	.LBB38:
 307:Yellow_code/Alg_PID.cpp ****     {
 308:Yellow_code/Alg_PID.cpp ****         if (UserMath::abs(this->pid_measure_.error) <= this->pid_measure_.errorabsmin)//最小值
 884              		.loc 1 308 9 view .LVU208
 885              	@ Yellow_code/Alg_PID.cpp:308:         if (UserMath::abs(this->pid_measure_.error) <= this->pid_mea
 886              		.loc 1 308 26 is_stmt 0 view .LVU209
 887 0090 94ED1B0A 		vldr.32	s0, [r4, #108]	@, this_66(D)->pid_measure_.error
 888 0094 FFF7FEFF 		bl	_ZN8UserMath3absIfEET_S1_		@
 889              	.LVL34:
 890              	@ Yellow_code/Alg_PID.cpp:308:         if (UserMath::abs(this->pid_measure_.error) <= this->pid_mea
 891              		.loc 1 308 75 view .LVU210
 892 0098 94ED247A 		vldr.32	s14, [r4, #144]	@ _139, this_66(D)->pid_measure_.errorabsmin
 893              	@ Yellow_code/Alg_PID.cpp:308:         if (UserMath::abs(this->pid_measure_.error) <= this->pid_mea
 894              		.loc 1 308 9 view .LVU211
 895 009c B4EEC70A 		vcmpe.f32	s0, s14	@ _138, _139
 896 00a0 F1EE10FA 		vmrs	APSR_nzcv, FPSCR
 897 00a4 40F2D180 		bls	.L46		@,
 309:Yellow_code/Alg_PID.cpp ****         {
 310:Yellow_code/Alg_PID.cpp ****             return 1.0f;
 311:Yellow_code/Alg_PID.cpp ****         }
 312:Yellow_code/Alg_PID.cpp ****         else if (UserMath::abs(this->pid_measure_.error) > this->pid_measure_.errorabsmax)//最大
 898              		.loc 1 312 14 is_stmt 1 view .LVU212
 899              	@ Yellow_code/Alg_PID.cpp:312:         else if (UserMath::abs(this->pid_measure_.error) > this->pid
ARM GAS  C:\Users\28212\AppData\Local\Temp\ccBXSG2d.s 			page 26


 900              		.loc 1 312 79 is_stmt 0 view .LVU213
 901 00a8 D4ED237A 		vldr.32	s15, [r4, #140]	@ _140, this_66(D)->pid_measure_.errorabsmax
 902              	@ Yellow_code/Alg_PID.cpp:312:         else if (UserMath::abs(this->pid_measure_.error) > this->pid
 903              		.loc 1 312 14 view .LVU214
 904 00ac B4EEE70A 		vcmpe.f32	s0, s15	@ _138, _140
 905 00b0 F1EE10FA 		vmrs	APSR_nzcv, FPSCR
 906 00b4 00F3CC80 		bgt	.L47		@,
 313:Yellow_code/Alg_PID.cpp ****         {
 314:Yellow_code/Alg_PID.cpp ****             return 0.0f;
 315:Yellow_code/Alg_PID.cpp ****         }
 316:Yellow_code/Alg_PID.cpp ****         else
 317:Yellow_code/Alg_PID.cpp ****         {
 318:Yellow_code/Alg_PID.cpp ****             return (this->pid_measure_.errorabsmax - UserMath::abs(this->pid_measure_.error)) / (th
 907              		.loc 1 318 13 is_stmt 1 view .LVU215
 908              	@ Yellow_code/Alg_PID.cpp:318:             return (this->pid_measure_.errorabsmax - UserMath::abs(t
 909              		.loc 1 318 52 is_stmt 0 view .LVU216
 910 00b8 37EEC00A 		vsub.f32	s0, s15, s0	@ _141, _140, _138
 911              	@ Yellow_code/Alg_PID.cpp:318:             return (this->pid_measure_.errorabsmax - UserMath::abs(t
 912              		.loc 1 318 129 view .LVU217
 913 00bc 37EEC77A 		vsub.f32	s14, s15, s14	@ _142, _140, _139
 914              	@ Yellow_code/Alg_PID.cpp:318:             return (this->pid_measure_.errorabsmax - UserMath::abs(t
 915              		.loc 1 318 161 view .LVU218
 916 00c0 C0EE077A 		vdiv.f32	s15, s0, s14	@ _143, _141, _142
 917              	.L28:
 918              	.LVL35:
 919              		.loc 1 318 161 view .LVU219
 920              	.LBE38:
 921              	.LBE37:
 922              	@ Yellow_code/Alg_PID.cpp:201:                 this->pid_measure_.Ierror += thiserr * this->Changin
 201:Yellow_code/Alg_PID.cpp ****             else
 923              		.loc 1 201 54 view .LVU220
 924 00c4 68EE277A 		vmul.f32	s15, s16, s15	@ _81, thiserr, _143
 925              	@ Yellow_code/Alg_PID.cpp:201:                 this->pid_measure_.Ierror += thiserr * this->Changin
 201:Yellow_code/Alg_PID.cpp ****             else
 926              		.loc 1 201 43 view .LVU221
 927 00c8 94ED128A 		vldr.32	s16, [r4, #72]	@ this_66(D)->pid_measure_.Ierror, this_66(D)->pid_measure_.Ierror
 928              	.LVL36:
 201:Yellow_code/Alg_PID.cpp ****             else
 929              		.loc 1 201 43 view .LVU222
 930 00cc 38EE278A 		vadd.f32	s16, s16, s15	@ tmp229, this_66(D)->pid_measure_.Ierror, _81
 931 00d0 84ED128A 		vstr.32	s16, [r4, #72]	@ tmp229, this_66(D)->pid_measure_.Ierror
 932              	.L29:
 207:Yellow_code/Alg_PID.cpp ****                 this->f_Integral_Limit();
 933              		.loc 1 207 13 is_stmt 1 view .LVU223
 934 00d4 15F0020F 		tst	r5, #2	@ _19,
 935 00d8 15D0     		beq	.L30		@,
 208:Yellow_code/Alg_PID.cpp ****             this->pid_measure_.Iout = this->pid_measure_.Ki * this->pid_measure_.Ierror;
 936              		.loc 1 208 17 view .LVU224
 937              	.LVL37:
 938              	.LBB40:
 939              	.LBI40:
 267:Yellow_code/Alg_PID.cpp ****     {
 940              		.loc 1 267 10 view .LVU225
 941              	.LBB41:
 269:Yellow_code/Alg_PID.cpp ****         {
 942              		.loc 1 269 9 view .LVU226
 943              	@ Yellow_code/Alg_PID.cpp:269:         if (this->pid_measure_.Ierror > this->pid_measure_.max_Ierro
ARM GAS  C:\Users\28212\AppData\Local\Temp\ccBXSG2d.s 			page 27


 269:Yellow_code/Alg_PID.cpp ****         {
 944              		.loc 1 269 32 is_stmt 0 view .LVU227
 945 00da 94ED127A 		vldr.32	s14, [r4, #72]	@ _80, this_66(D)->pid_measure_.Ierror
 946              	@ Yellow_code/Alg_PID.cpp:269:         if (this->pid_measure_.Ierror > this->pid_measure_.max_Ierro
 269:Yellow_code/Alg_PID.cpp ****         {
 947              		.loc 1 269 60 view .LVU228
 948 00de D4ED1F7A 		vldr.32	s15, [r4, #124]	@ _73, this_66(D)->pid_measure_.max_Ierror
 949              	@ Yellow_code/Alg_PID.cpp:269:         if (this->pid_measure_.Ierror > this->pid_measure_.max_Ierro
 269:Yellow_code/Alg_PID.cpp ****         {
 950              		.loc 1 269 9 view .LVU229
 951 00e2 F4EEC77A 		vcmpe.f32	s15, s14	@ _73, _80
 952 00e6 F1EE10FA 		vmrs	APSR_nzcv, FPSCR
 953 00ea 01D5     		bpl	.L31		@,
 271:Yellow_code/Alg_PID.cpp ****         }
 954              		.loc 1 271 13 is_stmt 1 view .LVU230
 955              	@ Yellow_code/Alg_PID.cpp:271:             this->pid_measure_.Ierror = this->pid_measure_.max_Ierro
 271:Yellow_code/Alg_PID.cpp ****         }
 956              		.loc 1 271 39 is_stmt 0 view .LVU231
 957 00ec C4ED127A 		vstr.32	s15, [r4, #72]	@ _73, this_66(D)->pid_measure_.Ierror
 958              	.L31:
 273:Yellow_code/Alg_PID.cpp ****         {
 959              		.loc 1 273 9 is_stmt 1 view .LVU232
 960              	@ Yellow_code/Alg_PID.cpp:273:         if (this->pid_measure_.Ierror < -(this->pid_measure_.max_Ier
 273:Yellow_code/Alg_PID.cpp ****         {
 961              		.loc 1 273 32 is_stmt 0 view .LVU233
 962 00f0 94ED127A 		vldr.32	s14, [r4, #72]	@ _96, this_66(D)->pid_measure_.Ierror
 963              	@ Yellow_code/Alg_PID.cpp:273:         if (this->pid_measure_.Ierror < -(this->pid_measure_.max_Ier
 273:Yellow_code/Alg_PID.cpp ****         {
 964              		.loc 1 273 41 view .LVU234
 965 00f4 F1EE677A 		vneg.f32	s15, s15	@ _97, _73
 966              	@ Yellow_code/Alg_PID.cpp:273:         if (this->pid_measure_.Ierror < -(this->pid_measure_.max_Ier
 273:Yellow_code/Alg_PID.cpp ****         {
 967              		.loc 1 273 9 view .LVU235
 968 00f8 B4EEE77A 		vcmpe.f32	s14, s15	@ _96, _97
 969 00fc F1EE10FA 		vmrs	APSR_nzcv, FPSCR
 970 0100 01D5     		bpl	.L30		@,
 275:Yellow_code/Alg_PID.cpp ****         }
 971              		.loc 1 275 13 is_stmt 1 view .LVU236
 972              	@ Yellow_code/Alg_PID.cpp:275:             this->pid_measure_.Ierror = -(this->pid_measure_.max_Ier
 275:Yellow_code/Alg_PID.cpp ****         }
 973              		.loc 1 275 39 is_stmt 0 view .LVU237
 974 0102 C4ED127A 		vstr.32	s15, [r4, #72]	@ _97, this_66(D)->pid_measure_.Ierror
 975              	.LVL38:
 976              	.L30:
 275:Yellow_code/Alg_PID.cpp ****         }
 977              		.loc 1 275 39 view .LVU238
 978              	.LBE41:
 979              	.LBE40:
 209:Yellow_code/Alg_PID.cpp **** 
 980              		.loc 1 209 13 is_stmt 1 view .LVU239
 981              	@ Yellow_code/Alg_PID.cpp:209:             this->pid_measure_.Iout = this->pid_measure_.Ki * this->
 209:Yellow_code/Alg_PID.cpp **** 
 982              		.loc 1 209 58 is_stmt 0 view .LVU240
 983 0106 D4ED097A 		vldr.32	s15, [r4, #36]	@ _27, this_66(D)->pid_measure_.Ki
 984              	@ Yellow_code/Alg_PID.cpp:209:             this->pid_measure_.Iout = this->pid_measure_.Ki * this->
 209:Yellow_code/Alg_PID.cpp **** 
 985              		.loc 1 209 82 view .LVU241
ARM GAS  C:\Users\28212\AppData\Local\Temp\ccBXSG2d.s 			page 28


 986 010a 94ED127A 		vldr.32	s14, [r4, #72]	@ _28, this_66(D)->pid_measure_.Ierror
 987              	@ Yellow_code/Alg_PID.cpp:209:             this->pid_measure_.Iout = this->pid_measure_.Ki * this->
 209:Yellow_code/Alg_PID.cpp **** 
 988              		.loc 1 209 61 view .LVU242
 989 010e 67EE877A 		vmul.f32	s15, s15, s14	@ _29, _27, _28
 990              	@ Yellow_code/Alg_PID.cpp:209:             this->pid_measure_.Iout = this->pid_measure_.Ki * this->
 209:Yellow_code/Alg_PID.cpp **** 
 991              		.loc 1 209 37 view .LVU243
 992 0112 C4ED147A 		vstr.32	s15, [r4, #80]	@ _29, this_66(D)->pid_measure_.Iout
 212:Yellow_code/Alg_PID.cpp ****                 this->f_Separated_Integral();
 993              		.loc 1 212 13 is_stmt 1 view .LVU244
 994 0116 15F0100F 		tst	r5, #16	@ _19,
 995 011a 11D0     		beq	.L34		@,
 213:Yellow_code/Alg_PID.cpp **** 
 996              		.loc 1 213 17 view .LVU245
 997              	.LVL39:
 998              	.LBB42:
 999              	.LBI42:
 255:Yellow_code/Alg_PID.cpp ****     {
 1000              		.loc 1 255 10 view .LVU246
 1001              	.LBB43:
 257:Yellow_code/Alg_PID.cpp ****             this->pid_measure_.Iout = 0;
 1002              		.loc 1 257 9 view .LVU247
 1003              	@ Yellow_code/Alg_PID.cpp:257:         if (this->pid_measure_.threshold_min > this->pid_measure_.er
 257:Yellow_code/Alg_PID.cpp ****             this->pid_measure_.Iout = 0;
 1004              		.loc 1 257 32 is_stmt 0 view .LVU248
 1005 011c 94ED227A 		vldr.32	s14, [r4, #136]	@ _98, this_66(D)->pid_measure_.threshold_min
 1006              	@ Yellow_code/Alg_PID.cpp:257:         if (this->pid_measure_.threshold_min > this->pid_measure_.er
 257:Yellow_code/Alg_PID.cpp ****             this->pid_measure_.Iout = 0;
 1007              		.loc 1 257 67 view .LVU249
 1008 0120 D4ED1B7A 		vldr.32	s15, [r4, #108]	@ _99, this_66(D)->pid_measure_.error
 1009              	@ Yellow_code/Alg_PID.cpp:257:         if (this->pid_measure_.threshold_min > this->pid_measure_.er
 257:Yellow_code/Alg_PID.cpp ****             this->pid_measure_.Iout = 0;
 1010              		.loc 1 257 9 view .LVU250
 1011 0124 B4EEE77A 		vcmpe.f32	s14, s15	@ _98, _99
 1012 0128 F1EE10FA 		vmrs	APSR_nzcv, FPSCR
 1013 012c 08DD     		ble	.L34		@,
 1014              	@ Yellow_code/Alg_PID.cpp:257:         if (this->pid_measure_.threshold_min > this->pid_measure_.er
 257:Yellow_code/Alg_PID.cpp ****             this->pid_measure_.Iout = 0;
 1015              		.loc 1 257 122 view .LVU251
 1016 012e 94ED217A 		vldr.32	s14, [r4, #132]	@ _100, this_66(D)->pid_measure_.threshold_max
 1017              	@ Yellow_code/Alg_PID.cpp:257:         if (this->pid_measure_.threshold_min > this->pid_measure_.er
 257:Yellow_code/Alg_PID.cpp ****             this->pid_measure_.Iout = 0;
 1018              		.loc 1 257 73 view .LVU252
 1019 0132 F4EEC77A 		vcmpe.f32	s15, s14	@ _99, _100
 1020 0136 F1EE10FA 		vmrs	APSR_nzcv, FPSCR
 1021 013a 01D5     		bpl	.L34		@,
 258:Yellow_code/Alg_PID.cpp ****     }
 1022              		.loc 1 258 13 is_stmt 1 view .LVU253
 1023              	@ Yellow_code/Alg_PID.cpp:258:             this->pid_measure_.Iout = 0;
 258:Yellow_code/Alg_PID.cpp ****     }
 1024              		.loc 1 258 37 is_stmt 0 view .LVU254
 1025 013c 0023     		movs	r3, #0	@ tmp233,
 1026 013e 2365     		str	r3, [r4, #80]	@ float	@ tmp233, this_66(D)->pid_measure_.Iout
 1027              	.LVL40:
 1028              	.L34:
 258:Yellow_code/Alg_PID.cpp ****     }
ARM GAS  C:\Users\28212\AppData\Local\Temp\ccBXSG2d.s 			page 29


 1029              		.loc 1 258 37 view .LVU255
 1030              	.LBE43:
 1031              	.LBE42:
 216:Yellow_code/Alg_PID.cpp ****                 this->pid_measure_.Dout = this->d_filter.first_order_filter(this->pid_measure_.Dout
 1032              		.loc 1 216 13 is_stmt 1 view .LVU256
 1033 0140 15F0800F 		tst	r5, #128	@ _19,
 1034 0144 40F08E80 		bne	.L61		@,
 1035              	.L37:
 220:Yellow_code/Alg_PID.cpp ****                 this->f_feedforward();
 1036              		.loc 1 220 13 view .LVU257
 1037              	@ Yellow_code/Alg_PID.cpp:220:             if (this->pid_measure_.mode & Feedforward)
 220:Yellow_code/Alg_PID.cpp ****                 this->f_feedforward();
 1038              		.loc 1 220 36 is_stmt 0 view .LVU258
 1039 0148 A36F     		ldr	r3, [r4, #120]	@ _35, this_66(D)->pid_measure_.mode
 1040              	@ Yellow_code/Alg_PID.cpp:220:             if (this->pid_measure_.mode & Feedforward)
 220:Yellow_code/Alg_PID.cpp ****                 this->f_feedforward();
 1041              		.loc 1 220 13 view .LVU259
 1042 014a 13F4806F 		tst	r3, #1024	@ _35,
 1043 014e 40F09180 		bne	.L62		@,
 1044              	.L38:
 223:Yellow_code/Alg_PID.cpp **** 
 1045              		.loc 1 223 13 is_stmt 1 view .LVU260
 1046              	@ Yellow_code/Alg_PID.cpp:223:             this->pid_measure_.out = this->pid_measure_.Pout + this-
 223:Yellow_code/Alg_PID.cpp **** 
 1047              		.loc 1 223 57 is_stmt 0 view .LVU261
 1048 0152 94ED130A 		vldr.32	s0, [r4, #76]	@ _37, this_66(D)->pid_measure_.Pout
 1049              	@ Yellow_code/Alg_PID.cpp:223:             this->pid_measure_.out = this->pid_measure_.Pout + this-
 223:Yellow_code/Alg_PID.cpp **** 
 1050              		.loc 1 223 83 view .LVU262
 1051 0156 D4ED147A 		vldr.32	s15, [r4, #80]	@ _38, this_66(D)->pid_measure_.Iout
 1052              	@ Yellow_code/Alg_PID.cpp:223:             this->pid_measure_.out = this->pid_measure_.Pout + this-
 223:Yellow_code/Alg_PID.cpp **** 
 1053              		.loc 1 223 62 view .LVU263
 1054 015a 30EE270A 		vadd.f32	s0, s0, s15	@ _39, _37, _38
 1055              	@ Yellow_code/Alg_PID.cpp:223:             this->pid_measure_.out = this->pid_measure_.Pout + this-
 223:Yellow_code/Alg_PID.cpp **** 
 1056              		.loc 1 223 109 view .LVU264
 1057 015e D4ED157A 		vldr.32	s15, [r4, #84]	@ _40, this_66(D)->pid_measure_.Dout
 1058              	@ Yellow_code/Alg_PID.cpp:223:             this->pid_measure_.out = this->pid_measure_.Pout + this-
 223:Yellow_code/Alg_PID.cpp **** 
 1059              		.loc 1 223 88 view .LVU265
 1060 0162 30EE270A 		vadd.f32	s0, s0, s15	@ _41, _39, _40
 1061              	@ Yellow_code/Alg_PID.cpp:223:             this->pid_measure_.out = this->pid_measure_.Pout + this-
 223:Yellow_code/Alg_PID.cpp **** 
 1062              		.loc 1 223 135 view .LVU266
 1063 0166 D4ED167A 		vldr.32	s15, [r4, #88]	@ _42, this_66(D)->pid_measure_.Fout
 1064              	@ Yellow_code/Alg_PID.cpp:223:             this->pid_measure_.out = this->pid_measure_.Pout + this-
 223:Yellow_code/Alg_PID.cpp **** 
 1065              		.loc 1 223 114 view .LVU267
 1066 016a 30EE270A 		vadd.f32	s0, s0, s15	@ _43, _41, _42
 1067              	@ Yellow_code/Alg_PID.cpp:223:             this->pid_measure_.out = this->pid_measure_.Pout + this-
 223:Yellow_code/Alg_PID.cpp **** 
 1068              		.loc 1 223 36 view .LVU268
 1069 016e 84ED170A 		vstr.32	s0, [r4, #92]	@ _43, this_66(D)->pid_measure_.out
 226:Yellow_code/Alg_PID.cpp ****                 this->pid_measure_.out = this->out_filter.first_order_filter(this->pid_measure_.out
 1070              		.loc 1 226 13 is_stmt 1 view .LVU269
 1071              	@ Yellow_code/Alg_PID.cpp:226:             if (this->pid_measure_.mode & OutputFilter)
ARM GAS  C:\Users\28212\AppData\Local\Temp\ccBXSG2d.s 			page 30


 226:Yellow_code/Alg_PID.cpp ****                 this->pid_measure_.out = this->out_filter.first_order_filter(this->pid_measure_.out
 1072              		.loc 1 226 36 is_stmt 0 view .LVU270
 1073 0172 A36F     		ldr	r3, [r4, #120]	@ _44, this_66(D)->pid_measure_.mode
 1074              	@ Yellow_code/Alg_PID.cpp:226:             if (this->pid_measure_.mode & OutputFilter)
 226:Yellow_code/Alg_PID.cpp ****                 this->pid_measure_.out = this->out_filter.first_order_filter(this->pid_measure_.out
 1075              		.loc 1 226 13 view .LVU271
 1076 0174 13F0400F 		tst	r3, #64	@ _44,
 1077 0178 40F09780 		bne	.L63		@,
 1078              	.L39:
 230:Yellow_code/Alg_PID.cpp ****                 this->f_Output_Limit();
 1079              		.loc 1 230 13 is_stmt 1 view .LVU272
 1080              	@ Yellow_code/Alg_PID.cpp:230:             if (this->pid_measure_.mode & Output_Limit)
 230:Yellow_code/Alg_PID.cpp ****                 this->f_Output_Limit();
 1081              		.loc 1 230 36 is_stmt 0 view .LVU273
 1082 017c A36F     		ldr	r3, [r4, #120]	@ _48, this_66(D)->pid_measure_.mode
 1083              	@ Yellow_code/Alg_PID.cpp:230:             if (this->pid_measure_.mode & Output_Limit)
 230:Yellow_code/Alg_PID.cpp ****                 this->f_Output_Limit();
 1084              		.loc 1 230 13 view .LVU274
 1085 017e 13F0040F 		tst	r3, #4	@ _48,
 1086 0182 00F09C80 		beq	.L40		@,
 231:Yellow_code/Alg_PID.cpp ****         }
 1087              		.loc 1 231 17 is_stmt 1 view .LVU275
 1088              	.LVL41:
 1089              	.LBB44:
 1090              	.LBI44:
 319:Yellow_code/Alg_PID.cpp ****         }
 320:Yellow_code/Alg_PID.cpp ****     }
 321:Yellow_code/Alg_PID.cpp **** 
 322:Yellow_code/Alg_PID.cpp **** 
 323:Yellow_code/Alg_PID.cpp ****     /**
 324:Yellow_code/Alg_PID.cpp ****      * @brief          输出限幅
 325:Yellow_code/Alg_PID.cpp ****      * @param[in]      pid结构体
 326:Yellow_code/Alg_PID.cpp ****      * @retval         none
 327:Yellow_code/Alg_PID.cpp ****      * @attention      none
 328:Yellow_code/Alg_PID.cpp ****      */
 329:Yellow_code/Alg_PID.cpp ****     void pid_alg_c::f_Output_Limit(void)
 1091              		.loc 1 329 10 view .LVU276
 1092              	.LBB45:
 330:Yellow_code/Alg_PID.cpp ****     {
 331:Yellow_code/Alg_PID.cpp ****         if (this->pid_measure_.out > this->pid_measure_.max_out)
 1093              		.loc 1 331 9 view .LVU277
 1094              	@ Yellow_code/Alg_PID.cpp:331:         if (this->pid_measure_.out > this->pid_measure_.max_out)
 1095              		.loc 1 331 32 is_stmt 0 view .LVU278
 1096 0186 94ED177A 		vldr.32	s14, [r4, #92]	@ _101, this_66(D)->pid_measure_.out
 1097              	@ Yellow_code/Alg_PID.cpp:331:         if (this->pid_measure_.out > this->pid_measure_.max_out)
 1098              		.loc 1 331 57 view .LVU279
 1099 018a D4ED1D7A 		vldr.32	s15, [r4, #116]	@ _102, this_66(D)->pid_measure_.max_out
 1100              	@ Yellow_code/Alg_PID.cpp:331:         if (this->pid_measure_.out > this->pid_measure_.max_out)
 1101              		.loc 1 331 9 view .LVU280
 1102 018e B4EEE77A 		vcmpe.f32	s14, s15	@ _101, _102
 1103 0192 F1EE10FA 		vmrs	APSR_nzcv, FPSCR
 1104 0196 01DD     		ble	.L41		@,
 332:Yellow_code/Alg_PID.cpp ****         {
 333:Yellow_code/Alg_PID.cpp ****             this->pid_measure_.out = this->pid_measure_.max_out;
 1105              		.loc 1 333 13 is_stmt 1 view .LVU281
 1106              	@ Yellow_code/Alg_PID.cpp:333:             this->pid_measure_.out = this->pid_measure_.max_out;
 1107              		.loc 1 333 36 is_stmt 0 view .LVU282
ARM GAS  C:\Users\28212\AppData\Local\Temp\ccBXSG2d.s 			page 31


 1108 0198 C4ED177A 		vstr.32	s15, [r4, #92]	@ _102, this_66(D)->pid_measure_.out
 1109              	.L41:
 334:Yellow_code/Alg_PID.cpp ****         }
 335:Yellow_code/Alg_PID.cpp ****         if (this->pid_measure_.out < -(this->pid_measure_.max_out))
 1110              		.loc 1 335 9 is_stmt 1 view .LVU283
 1111              	@ Yellow_code/Alg_PID.cpp:335:         if (this->pid_measure_.out < -(this->pid_measure_.max_out))
 1112              		.loc 1 335 32 is_stmt 0 view .LVU284
 1113 019c 94ED177A 		vldr.32	s14, [r4, #92]	@ _103, this_66(D)->pid_measure_.out
 1114              	@ Yellow_code/Alg_PID.cpp:335:         if (this->pid_measure_.out < -(this->pid_measure_.max_out))
 1115              		.loc 1 335 38 view .LVU285
 1116 01a0 F1EE677A 		vneg.f32	s15, s15	@ _104, _102
 1117              	@ Yellow_code/Alg_PID.cpp:335:         if (this->pid_measure_.out < -(this->pid_measure_.max_out))
 1118              		.loc 1 335 9 view .LVU286
 1119 01a4 B4EEE77A 		vcmpe.f32	s14, s15	@ _103, _104
 1120 01a8 F1EE10FA 		vmrs	APSR_nzcv, FPSCR
 1121 01ac 40F18780 		bpl	.L40		@,
 336:Yellow_code/Alg_PID.cpp ****         {
 337:Yellow_code/Alg_PID.cpp ****             this->pid_measure_.out = -(this->pid_measure_.max_out);
 1122              		.loc 1 337 13 is_stmt 1 view .LVU287
 1123              	@ Yellow_code/Alg_PID.cpp:337:             this->pid_measure_.out = -(this->pid_measure_.max_out);
 1124              		.loc 1 337 36 is_stmt 0 view .LVU288
 1125 01b0 C4ED177A 		vstr.32	s15, [r4, #92]	@ _104, this_66(D)->pid_measure_.out
 1126 01b4 83E0     		b	.L40		@
 1127              	.LVL42:
 1128              	.L59:
 1129              		.loc 1 337 36 view .LVU289
 1130              	.LBE45:
 1131              	.LBE44:
 177:Yellow_code/Alg_PID.cpp **** 
 1132              		.loc 1 177 13 is_stmt 1 view .LVU290
 1133              	.LBB46:
 1134              	.LBI46:
 338:Yellow_code/Alg_PID.cpp ****         }
 339:Yellow_code/Alg_PID.cpp ****     }
 340:Yellow_code/Alg_PID.cpp **** 
 341:Yellow_code/Alg_PID.cpp **** 
 342:Yellow_code/Alg_PID.cpp ****     /**
 343:Yellow_code/Alg_PID.cpp ****      * @brief           步进式pid
 344:Yellow_code/Alg_PID.cpp ****      * @retval          none
 345:Yellow_code/Alg_PID.cpp ****      * @attention       详见 https://blog.csdn.net/foxclever/article/details/81151898
 346:Yellow_code/Alg_PID.cpp ****      * @note            固定每周期的设定值变化值
 347:Yellow_code/Alg_PID.cpp ****      */
 348:Yellow_code/Alg_PID.cpp ****     void pid_alg_c::f_StepIn(void)
 1135              		.loc 1 348 10 view .LVU291
 1136              	.LBB47:
 349:Yellow_code/Alg_PID.cpp ****     {
 350:Yellow_code/Alg_PID.cpp ****         if (UserMath::abs(this->pid_measure_.LastSetValue - this->pid_measure_.SetValue) <= this->p
 1137              		.loc 1 350 9 view .LVU292
 1138              	@ Yellow_code/Alg_PID.cpp:350:         if (UserMath::abs(this->pid_measure_.LastSetValue - this->pi
 1139              		.loc 1 350 46 is_stmt 0 view .LVU293
 1140 01b6 D0ED0E8A 		vldr.32	s17, [r0, #56]	@ _112, this_66(D)->pid_measure_.LastSetValue
 1141              	@ Yellow_code/Alg_PID.cpp:350:         if (UserMath::abs(this->pid_measure_.LastSetValue - this->pi
 1142              		.loc 1 350 26 view .LVU294
 1143 01ba 38EEC08A 		vsub.f32	s16, s17, s0	@ _114, _112, _113
 1144 01be B0EE480A 		vmov.f32	s0, s16	@, _114
 1145              	.LVL43:
 1146              		.loc 1 350 26 view .LVU295
ARM GAS  C:\Users\28212\AppData\Local\Temp\ccBXSG2d.s 			page 32


 1147 01c2 FFF7FEFF 		bl	_ZN8UserMath3absIfEET_S1_		@
 1148              	.LVL44:
 1149              	@ Yellow_code/Alg_PID.cpp:350:         if (UserMath::abs(this->pid_measure_.LastSetValue - this->pi
 1150              		.loc 1 350 112 view .LVU296
 1151 01c6 D4ED267A 		vldr.32	s15, [r4, #152]	@ _116, this_66(D)->pid_measure_.stepIn
 1152              	@ Yellow_code/Alg_PID.cpp:350:         if (UserMath::abs(this->pid_measure_.LastSetValue - this->pi
 1153              		.loc 1 350 9 view .LVU297
 1154 01ca B4EEE70A 		vcmpe.f32	s0, s15	@ tmp240, _116
 1155 01ce F1EE10FA 		vmrs	APSR_nzcv, FPSCR
 1156 01d2 7FF620AF 		bls	.L18		@,
 351:Yellow_code/Alg_PID.cpp ****         {
 352:Yellow_code/Alg_PID.cpp ****             return;
 353:Yellow_code/Alg_PID.cpp ****         }
 354:Yellow_code/Alg_PID.cpp ****         float kFactor = 0.0f;
 1157              		.loc 1 354 9 is_stmt 1 view .LVU298
 1158              	.LVL45:
 355:Yellow_code/Alg_PID.cpp ****         if ((this->pid_measure_.LastSetValue - this->pid_measure_.SetValue) > 0.0f)
 1159              		.loc 1 355 9 view .LVU299
 1160 01d6 B5EEC08A 		vcmpe.f32	s16, #0	@ _114
 1161 01da F1EE10FA 		vmrs	APSR_nzcv, FPSCR
 1162 01de 08DD     		ble	.L64		@,
 1163              	@ Yellow_code/Alg_PID.cpp:357:             kFactor = -1.0f;
 356:Yellow_code/Alg_PID.cpp ****         {
 357:Yellow_code/Alg_PID.cpp ****             kFactor = -1.0f;
 1164              		.loc 1 357 21 is_stmt 0 view .LVU300
 1165 01e0 BFEE007A 		vmov.f32	s14, #-1.0e+0	@ kFactor,
 1166              	.L20:
 1167              	.LVL46:
 358:Yellow_code/Alg_PID.cpp ****         }
 359:Yellow_code/Alg_PID.cpp ****         else if ((this->pid_measure_.LastSetValue - this->pid_measure_.SetValue) < 0.0f)
 360:Yellow_code/Alg_PID.cpp ****         {
 361:Yellow_code/Alg_PID.cpp ****             kFactor = 1.0f;
 362:Yellow_code/Alg_PID.cpp ****         }
 363:Yellow_code/Alg_PID.cpp ****         else
 364:Yellow_code/Alg_PID.cpp ****         {
 365:Yellow_code/Alg_PID.cpp ****             kFactor = 0.0f;
 366:Yellow_code/Alg_PID.cpp ****         }
 367:Yellow_code/Alg_PID.cpp ****         this->pid_measure_.SetValue = this->pid_measure_.LastSetValue + kFactor * this->pid_measure
 1168              		.loc 1 367 9 is_stmt 1 view .LVU301
 1169              	@ Yellow_code/Alg_PID.cpp:367:         this->pid_measure_.SetValue = this->pid_measure_.LastSetValu
 1170              		.loc 1 367 81 is_stmt 0 view .LVU302
 1171 01e4 67EE877A 		vmul.f32	s15, s15, s14	@ _118, _116, kFactor
 1172              	@ Yellow_code/Alg_PID.cpp:367:         this->pid_measure_.SetValue = this->pid_measure_.LastSetValu
 1173              		.loc 1 367 71 view .LVU303
 1174 01e8 78EEA78A 		vadd.f32	s17, s17, s15	@ _119, _112, _118
 1175              	@ Yellow_code/Alg_PID.cpp:367:         this->pid_measure_.SetValue = this->pid_measure_.LastSetValu
 1176              		.loc 1 367 37 view .LVU304
 1177 01ec C4ED0D8A 		vstr.32	s17, [r4, #52]	@ _119, this_66(D)->pid_measure_.SetValue
 1178 01f0 11E7     		b	.L18		@
 1179              	.LVL47:
 1180              	.L64:
 359:Yellow_code/Alg_PID.cpp ****         {
 1181              		.loc 1 359 14 is_stmt 1 view .LVU305
 1182 01f2 02D4     		bmi	.L65		@,
 1183              	@ Yellow_code/Alg_PID.cpp:365:             kFactor = 0.0f;
 365:Yellow_code/Alg_PID.cpp ****         }
 1184              		.loc 1 365 21 is_stmt 0 view .LVU306
ARM GAS  C:\Users\28212\AppData\Local\Temp\ccBXSG2d.s 			page 33


 1185 01f4 9FED397A 		vldr.32	s14, .L66	@ kFactor,
 1186 01f8 F4E7     		b	.L20		@
 1187              	.L65:
 1188              	@ Yellow_code/Alg_PID.cpp:361:             kFactor = 1.0f;
 361:Yellow_code/Alg_PID.cpp ****         }
 1189              		.loc 1 361 21 view .LVU307
 1190 01fa B7EE007A 		vmov.f32	s14, #1.0e+0	@ kFactor,
 1191 01fe F1E7     		b	.L20		@
 1192              	.LVL48:
 1193              	.L60:
 361:Yellow_code/Alg_PID.cpp ****         }
 1194              		.loc 1 361 21 view .LVU308
 1195              	.LBE47:
 1196              	.LBE46:
 195:Yellow_code/Alg_PID.cpp ****             else
 1197              		.loc 1 195 17 is_stmt 1 view .LVU309
 1198              	.LBB48:
 1199              	.LBI48:
 286:Yellow_code/Alg_PID.cpp ****     {
 1200              		.loc 1 286 10 view .LVU310
 1201              	.LBB49:
 288:Yellow_code/Alg_PID.cpp **** 
 1202              		.loc 1 288 9 view .LVU311
 290:Yellow_code/Alg_PID.cpp ****         c3 = this->pid_measure_.Kd / temp;
 1203              		.loc 1 290 9 view .LVU312
 1204              	@ Yellow_code/Alg_PID.cpp:290:         temp = this->pid_measure_.gama * this->pid_measure_.Kd + thi
 290:Yellow_code/Alg_PID.cpp ****         c3 = this->pid_measure_.Kd / temp;
 1205              		.loc 1 290 35 is_stmt 0 view .LVU313
 1206 0200 D4ED257A 		vldr.32	s15, [r4, #148]	@ _120, this_66(D)->pid_measure_.gama
 1207              	@ Yellow_code/Alg_PID.cpp:290:         temp = this->pid_measure_.gama * this->pid_measure_.Kd + thi
 290:Yellow_code/Alg_PID.cpp ****         c3 = this->pid_measure_.Kd / temp;
 1208              		.loc 1 290 61 view .LVU314
 1209 0204 94ED0A7A 		vldr.32	s14, [r4, #40]	@ _121, this_66(D)->pid_measure_.Kd
 1210              	@ Yellow_code/Alg_PID.cpp:290:         temp = this->pid_measure_.gama * this->pid_measure_.Kd + thi
 290:Yellow_code/Alg_PID.cpp ****         c3 = this->pid_measure_.Kd / temp;
 1211              		.loc 1 290 40 view .LVU315
 1212 0208 27EE876A 		vmul.f32	s12, s15, s14	@ _122, _120, _121
 1213              	@ Yellow_code/Alg_PID.cpp:290:         temp = this->pid_measure_.gama * this->pid_measure_.Kd + thi
 290:Yellow_code/Alg_PID.cpp ****         c3 = this->pid_measure_.Kd / temp;
 1214              		.loc 1 290 85 view .LVU316
 1215 020c D4ED085A 		vldr.32	s11, [r4, #32]	@ _123, this_66(D)->pid_measure_.Kp
 1216              	@ Yellow_code/Alg_PID.cpp:290:         temp = this->pid_measure_.gama * this->pid_measure_.Kd + thi
 290:Yellow_code/Alg_PID.cpp ****         c3 = this->pid_measure_.Kd / temp;
 1217              		.loc 1 290 14 view .LVU317
 1218 0210 36EE256A 		vadd.f32	s12, s12, s11	@ temp, _122, _123
 1219              	.LVL49:
 291:Yellow_code/Alg_PID.cpp ****         c2 = (this->pid_measure_.Kd + this->pid_measure_.Kp) / temp;
 1220              		.loc 1 291 9 is_stmt 1 view .LVU318
 1221              	@ Yellow_code/Alg_PID.cpp:291:         c3 = this->pid_measure_.Kd / temp;
 291:Yellow_code/Alg_PID.cpp ****         c2 = (this->pid_measure_.Kd + this->pid_measure_.Kp) / temp;
 1222              		.loc 1 291 12 is_stmt 0 view .LVU319
 1223 0214 C7EE066A 		vdiv.f32	s13, s14, s12	@ c3, _121, temp
 1224              	.LVL50:
 292:Yellow_code/Alg_PID.cpp ****         c1 = this->pid_measure_.gama * c3;
 1225              		.loc 1 292 9 is_stmt 1 view .LVU320
 1226              	@ Yellow_code/Alg_PID.cpp:292:         c2 = (this->pid_measure_.Kd + this->pid_measure_.Kp) / temp;
 292:Yellow_code/Alg_PID.cpp ****         c1 = this->pid_measure_.gama * c3;
ARM GAS  C:\Users\28212\AppData\Local\Temp\ccBXSG2d.s 			page 34


 1227              		.loc 1 292 37 is_stmt 0 view .LVU321
 1228 0218 37EE257A 		vadd.f32	s14, s14, s11	@ _126, _121, _123
 1229              	@ Yellow_code/Alg_PID.cpp:292:         c2 = (this->pid_measure_.Kd + this->pid_measure_.Kp) / temp;
 292:Yellow_code/Alg_PID.cpp ****         c1 = this->pid_measure_.gama * c3;
 1230              		.loc 1 292 12 view .LVU322
 1231 021c C7EE065A 		vdiv.f32	s11, s14, s12	@ c2, _126, temp
 1232              	.LVL51:
 293:Yellow_code/Alg_PID.cpp ****         this->pid_measure_.Dout = c1 * this->pid_measure_.Dout + c2 * this->pid_measure_.ActualValu
 1233              		.loc 1 293 9 is_stmt 1 view .LVU323
 1234              	@ Yellow_code/Alg_PID.cpp:293:         c1 = this->pid_measure_.gama * c3;
 293:Yellow_code/Alg_PID.cpp ****         this->pid_measure_.Dout = c1 * this->pid_measure_.Dout + c2 * this->pid_measure_.ActualValu
 1235              		.loc 1 293 12 is_stmt 0 view .LVU324
 1236 0220 67EEA67A 		vmul.f32	s15, s15, s13	@ c1, _120, c3
 1237              	.LVL52:
 294:Yellow_code/Alg_PID.cpp ****     }
 1238              		.loc 1 294 9 is_stmt 1 view .LVU325
 1239              	@ Yellow_code/Alg_PID.cpp:294:         this->pid_measure_.Dout = c1 * this->pid_measure_.Dout + c2 
 294:Yellow_code/Alg_PID.cpp ****     }
 1240              		.loc 1 294 59 is_stmt 0 view .LVU326
 1241 0224 94ED157A 		vldr.32	s14, [r4, #84]	@ _129, this_66(D)->pid_measure_.Dout
 1242              	@ Yellow_code/Alg_PID.cpp:294:         this->pid_measure_.Dout = c1 * this->pid_measure_.Dout + c2 
 294:Yellow_code/Alg_PID.cpp ****     }
 1243              		.loc 1 294 38 view .LVU327
 1244 0228 67EE877A 		vmul.f32	s15, s15, s14	@ _130, c1, _129
 1245              	.LVL53:
 1246              	@ Yellow_code/Alg_PID.cpp:294:         this->pid_measure_.Dout = c1 * this->pid_measure_.Dout + c2 
 294:Yellow_code/Alg_PID.cpp ****     }
 1247              		.loc 1 294 90 view .LVU328
 1248 022c 94ED107A 		vldr.32	s14, [r4, #64]	@ _131, this_66(D)->pid_measure_.ActualValue
 1249              	@ Yellow_code/Alg_PID.cpp:294:         this->pid_measure_.Dout = c1 * this->pid_measure_.Dout + c2 
 294:Yellow_code/Alg_PID.cpp ****     }
 1250              		.loc 1 294 69 view .LVU329
 1251 0230 25EE877A 		vmul.f32	s14, s11, s14	@ _132, c2, _131
 1252              	@ Yellow_code/Alg_PID.cpp:294:         this->pid_measure_.Dout = c1 * this->pid_measure_.Dout + c2 
 294:Yellow_code/Alg_PID.cpp ****     }
 1253              		.loc 1 294 64 view .LVU330
 1254 0234 77EE877A 		vadd.f32	s15, s15, s14	@ _133, _130, _132
 1255              	@ Yellow_code/Alg_PID.cpp:294:         this->pid_measure_.Dout = c1 * this->pid_measure_.Dout + c2 
 294:Yellow_code/Alg_PID.cpp ****     }
 1256              		.loc 1 294 128 view .LVU331
 1257 0238 94ED117A 		vldr.32	s14, [r4, #68]	@ _134, this_66(D)->pid_measure_.LastActualValue
 1258              	@ Yellow_code/Alg_PID.cpp:294:         this->pid_measure_.Dout = c1 * this->pid_measure_.Dout + c2 
 294:Yellow_code/Alg_PID.cpp ****     }
 1259              		.loc 1 294 107 view .LVU332
 1260 023c 66EE876A 		vmul.f32	s13, s13, s14	@ _135, c3, _134
 1261              	.LVL54:
 1262              	@ Yellow_code/Alg_PID.cpp:294:         this->pid_measure_.Dout = c1 * this->pid_measure_.Dout + c2 
 294:Yellow_code/Alg_PID.cpp ****     }
 1263              		.loc 1 294 102 view .LVU333
 1264 0240 77EEE67A 		vsub.f32	s15, s15, s13	@ _136, _133, _135
 1265              	@ Yellow_code/Alg_PID.cpp:294:         this->pid_measure_.Dout = c1 * this->pid_measure_.Dout + c2 
 294:Yellow_code/Alg_PID.cpp ****     }
 1266              		.loc 1 294 33 view .LVU334
 1267 0244 C4ED157A 		vstr.32	s15, [r4, #84]	@ _136, this_66(D)->pid_measure_.Dout
 1268              	@ Yellow_code/Alg_PID.cpp:295:     }
 295:Yellow_code/Alg_PID.cpp **** 
 1269              		.loc 1 295 5 view .LVU335
ARM GAS  C:\Users\28212\AppData\Local\Temp\ccBXSG2d.s 			page 35


 1270 0248 1DE7     		b	.L26		@
 1271              	.LVL55:
 1272              	.L46:
 295:Yellow_code/Alg_PID.cpp **** 
 1273              		.loc 1 295 5 view .LVU336
 1274              	.LBE49:
 1275              	.LBE48:
 1276              	.LBB50:
 1277              	.LBB39:
 1278              	@ Yellow_code/Alg_PID.cpp:310:             return 1.0f;
 310:Yellow_code/Alg_PID.cpp ****         }
 1279              		.loc 1 310 20 view .LVU337
 1280 024a F7EE007A 		vmov.f32	s15, #1.0e+0	@ _143,
 1281 024e 39E7     		b	.L28		@
 1282              	.L47:
 1283              	@ Yellow_code/Alg_PID.cpp:314:             return 0.0f;
 314:Yellow_code/Alg_PID.cpp ****         }
 1284              		.loc 1 314 20 view .LVU338
 1285 0250 DFED227A 		vldr.32	s15, .L66	@ _143,
 1286 0254 36E7     		b	.L28		@
 1287              	.LVL56:
 1288              	.L27:
 314:Yellow_code/Alg_PID.cpp ****         }
 1289              		.loc 1 314 20 view .LVU339
 1290              	.LBE39:
 1291              	.LBE50:
 203:Yellow_code/Alg_PID.cpp **** 
 1292              		.loc 1 203 17 is_stmt 1 view .LVU340
 1293              	@ Yellow_code/Alg_PID.cpp:203:                 this->pid_measure_.Ierror += thiserr;
 203:Yellow_code/Alg_PID.cpp **** 
 1294              		.loc 1 203 43 is_stmt 0 view .LVU341
 1295 0256 D4ED127A 		vldr.32	s15, [r4, #72]	@ this_66(D)->pid_measure_.Ierror, this_66(D)->pid_measure_.Ierror
 1296 025a 37EE888A 		vadd.f32	s16, s15, s16	@ tmp231, this_66(D)->pid_measure_.Ierror, thiserr
 1297              	.LVL57:
 203:Yellow_code/Alg_PID.cpp **** 
 1298              		.loc 1 203 43 view .LVU342
 1299 025e 84ED128A 		vstr.32	s16, [r4, #72]	@ tmp231, this_66(D)->pid_measure_.Ierror
 1300 0262 37E7     		b	.L29		@
 1301              	.L61:
 217:Yellow_code/Alg_PID.cpp **** 
 1302              		.loc 1 217 17 is_stmt 1 view .LVU343
 1303              	@ Yellow_code/Alg_PID.cpp:217:                 this->pid_measure_.Dout = this->d_filter.first_order
 217:Yellow_code/Alg_PID.cpp **** 
 1304              		.loc 1 217 76 is_stmt 0 view .LVU344
 1305 0264 94ED150A 		vldr.32	s0, [r4, #84]	@, this_66(D)->pid_measure_.Dout
 1306 0268 2046     		mov	r0, r4	@, this
 1307 026a FFF7FEFF 		bl	_ZN9Algorithm20first_order_filter_c18first_order_filterEf		@
 1308              	.LVL58:
 1309              	@ Yellow_code/Alg_PID.cpp:217:                 this->pid_measure_.Dout = this->d_filter.first_order
 217:Yellow_code/Alg_PID.cpp **** 
 1310              		.loc 1 217 41 view .LVU345
 1311 026e 84ED150A 		vstr.32	s0, [r4, #84]	@ tmp243, this_66(D)->pid_measure_.Dout
 1312 0272 69E7     		b	.L37		@
 1313              	.L62:
 221:Yellow_code/Alg_PID.cpp **** 
 1314              		.loc 1 221 17 is_stmt 1 view .LVU346
 1315              	.LVL59:
ARM GAS  C:\Users\28212\AppData\Local\Temp\ccBXSG2d.s 			page 36


 1316              	.LBB51:
 1317              	.LBI51:
 368:Yellow_code/Alg_PID.cpp **** 
 369:Yellow_code/Alg_PID.cpp ****     }
 370:Yellow_code/Alg_PID.cpp **** 
 371:Yellow_code/Alg_PID.cpp **** 
 372:Yellow_code/Alg_PID.cpp ****     /**
 373:Yellow_code/Alg_PID.cpp ****      * @brief           前馈控制器
 374:Yellow_code/Alg_PID.cpp ****      * @param           SetValuew 当前设定值
 375:Yellow_code/Alg_PID.cpp ****      * @note            原理：求导数对未来状态进行预测
 376:Yellow_code/Alg_PID.cpp ****      */
 377:Yellow_code/Alg_PID.cpp ****     void pid_alg_c::f_feedforward(void)
 1318              		.loc 1 377 10 view .LVU347
 1319              	.LBB52:
 378:Yellow_code/Alg_PID.cpp ****     {
 379:Yellow_code/Alg_PID.cpp ****         this->pid_measure_.Fout = this->pid_measure_.Kfa * (this->pid_measure_.SetValue - this->pid
 1320              		.loc 1 379 9 view .LVU348
 1321              	@ Yellow_code/Alg_PID.cpp:379:         this->pid_measure_.Fout = this->pid_measure_.Kfa * (this->pi
 1322              		.loc 1 379 54 is_stmt 0 view .LVU349
 1323 0274 94ED0B7A 		vldr.32	s14, [r4, #44]	@ _145, this_66(D)->pid_measure_.Kfa
 1324              	@ Yellow_code/Alg_PID.cpp:379:         this->pid_measure_.Fout = this->pid_measure_.Kfa * (this->pi
 1325              		.loc 1 379 80 view .LVU350
 1326 0278 D4ED0D7A 		vldr.32	s15, [r4, #52]	@ _146, this_66(D)->pid_measure_.SetValue
 1327              	@ Yellow_code/Alg_PID.cpp:379:         this->pid_measure_.Fout = this->pid_measure_.Kfa * (this->pi
 1328              		.loc 1 379 110 view .LVU351
 1329 027c D4ED0E6A 		vldr.32	s13, [r4, #56]	@ _147, this_66(D)->pid_measure_.LastSetValue
 1330              	@ Yellow_code/Alg_PID.cpp:379:         this->pid_measure_.Fout = this->pid_measure_.Kfa * (this->pi
 1331              		.loc 1 379 89 view .LVU352
 1332 0280 37EEE66A 		vsub.f32	s12, s15, s13	@ _148, _146, _147
 1333              	@ Yellow_code/Alg_PID.cpp:379:         this->pid_measure_.Fout = this->pid_measure_.Kfa * (this->pi
 1334              		.loc 1 379 58 view .LVU353
 1335 0284 27EE067A 		vmul.f32	s14, s14, s12	@ _149, _145, _148
 1336              	@ Yellow_code/Alg_PID.cpp:380:                                   this->pid_measure_.Kfb * (this->pi
 380:Yellow_code/Alg_PID.cpp ****                                   this->pid_measure_.Kfb * (this->pid_measure_.SetValue - 2 * this-
 1337              		.loc 1 380 54 view .LVU354
 1338 0288 94ED0C6A 		vldr.32	s12, [r4, #48]	@ _150, this_66(D)->pid_measure_.Kfb
 1339              	@ Yellow_code/Alg_PID.cpp:380:                                   this->pid_measure_.Kfb * (this->pi
 1340              		.loc 1 380 93 view .LVU355
 1341 028c 76EEA66A 		vadd.f32	s13, s13, s13	@ _151, _147, _147
 1342              	@ Yellow_code/Alg_PID.cpp:380:                                   this->pid_measure_.Kfb * (this->pi
 1343              		.loc 1 380 89 view .LVU356
 1344 0290 77EEE67A 		vsub.f32	s15, s15, s13	@ _152, _146, _151
 1345              	@ Yellow_code/Alg_PID.cpp:380:                                   this->pid_measure_.Kfb * (this->pi
 1346              		.loc 1 380 148 view .LVU357
 1347 0294 D4ED0F6A 		vldr.32	s13, [r4, #60]	@ _153, this_66(D)->pid_measure_.PerrSetValue
 1348              	@ Yellow_code/Alg_PID.cpp:380:                                   this->pid_measure_.Kfb * (this->pi
 1349              		.loc 1 380 127 view .LVU358
 1350 0298 77EEA67A 		vadd.f32	s15, s15, s13	@ _154, _152, _153
 1351              	@ Yellow_code/Alg_PID.cpp:380:                                   this->pid_measure_.Kfb * (this->pi
 1352              		.loc 1 380 58 view .LVU359
 1353 029c 66EE277A 		vmul.f32	s15, s12, s15	@ _155, _150, _154
 1354              	@ Yellow_code/Alg_PID.cpp:379:         this->pid_measure_.Fout = this->pid_measure_.Kfa * (this->pi
 379:Yellow_code/Alg_PID.cpp ****                                   this->pid_measure_.Kfb * (this->pid_measure_.SetValue - 2 * this-
 1355              		.loc 1 379 124 view .LVU360
 1356 02a0 77EE277A 		vadd.f32	s15, s14, s15	@ _156, _149, _155
 1357              	@ Yellow_code/Alg_PID.cpp:379:         this->pid_measure_.Fout = this->pid_measure_.Kfa * (this->pi
 379:Yellow_code/Alg_PID.cpp ****                                   this->pid_measure_.Kfb * (this->pid_measure_.SetValue - 2 * this-
ARM GAS  C:\Users\28212\AppData\Local\Temp\ccBXSG2d.s 			page 37


 1358              		.loc 1 379 33 view .LVU361
 1359 02a4 C4ED167A 		vstr.32	s15, [r4, #88]	@ _156, this_66(D)->pid_measure_.Fout
 1360              	@ Yellow_code/Alg_PID.cpp:381:     }
 381:Yellow_code/Alg_PID.cpp ****     }
 1361              		.loc 1 381 5 view .LVU362
 1362 02a8 53E7     		b	.L38		@
 1363              	.LVL60:
 1364              	.L63:
 1365              		.loc 1 381 5 view .LVU363
 1366              	.LBE52:
 1367              	.LBE51:
 227:Yellow_code/Alg_PID.cpp **** 
 1368              		.loc 1 227 17 is_stmt 1 view .LVU364
 1369              	@ Yellow_code/Alg_PID.cpp:227:                 this->pid_measure_.out = this->out_filter.first_orde
 227:Yellow_code/Alg_PID.cpp **** 
 1370              		.loc 1 227 77 is_stmt 0 view .LVU365
 1371 02aa 04F11000 		add	r0, r4, #16	@, this,
 1372 02ae FFF7FEFF 		bl	_ZN9Algorithm20first_order_filter_c18first_order_filterEf		@
 1373              	.LVL61:
 1374              	@ Yellow_code/Alg_PID.cpp:227:                 this->pid_measure_.out = this->out_filter.first_orde
 227:Yellow_code/Alg_PID.cpp **** 
 1375              		.loc 1 227 40 view .LVU366
 1376 02b2 84ED170A 		vstr.32	s0, [r4, #92]	@ tmp244, this_66(D)->pid_measure_.out
 1377 02b6 61E7     		b	.L39		@
 1378              	.LVL62:
 1379              	.L57:
 235:Yellow_code/Alg_PID.cpp ****         }
 1380              		.loc 1 235 13 is_stmt 1 view .LVU367
 1381              	@ Yellow_code/Alg_PID.cpp:235:             this->ECF_PID_CLEAR();
 235:Yellow_code/Alg_PID.cpp ****         }
 1382              		.loc 1 235 32 is_stmt 0 view .LVU368
 1383 02b8 2046     		mov	r0, r4	@, this
 1384 02ba FFF7FEFF 		bl	_ZN9Algorithm9pid_alg_c13ECF_PID_CLEAREv		@
 1385              	.LVL63:
 1386              	.L40:
 239:Yellow_code/Alg_PID.cpp ****         this->pid_measure_.PerrSetValue = this->pid_measure_.LastSetValue;
 1387              		.loc 1 239 9 is_stmt 1 view .LVU369
 1388              	@ Yellow_code/Alg_PID.cpp:239:         this->pid_measure_.LastActualValue = this->pid_measure_.Actu
 239:Yellow_code/Alg_PID.cpp ****         this->pid_measure_.PerrSetValue = this->pid_measure_.LastSetValue;
 1389              		.loc 1 239 65 is_stmt 0 view .LVU370
 1390 02be 236C     		ldr	r3, [r4, #64]	@ float	@ _50, this_66(D)->pid_measure_.ActualValue
 1391              	@ Yellow_code/Alg_PID.cpp:239:         this->pid_measure_.LastActualValue = this->pid_measure_.Actu
 239:Yellow_code/Alg_PID.cpp ****         this->pid_measure_.PerrSetValue = this->pid_measure_.LastSetValue;
 1392              		.loc 1 239 44 view .LVU371
 1393 02c0 6364     		str	r3, [r4, #68]	@ float	@ _50, this_66(D)->pid_measure_.LastActualValue
 240:Yellow_code/Alg_PID.cpp ****         this->pid_measure_.LastSetValue = this->pid_measure_.SetValue;
 1394              		.loc 1 240 9 is_stmt 1 view .LVU372
 1395              	@ Yellow_code/Alg_PID.cpp:240:         this->pid_measure_.PerrSetValue = this->pid_measure_.LastSet
 240:Yellow_code/Alg_PID.cpp ****         this->pid_measure_.LastSetValue = this->pid_measure_.SetValue;
 1396              		.loc 1 240 62 is_stmt 0 view .LVU373
 1397 02c2 A36B     		ldr	r3, [r4, #56]	@ float	@ _51, this_66(D)->pid_measure_.LastSetValue
 1398              	@ Yellow_code/Alg_PID.cpp:240:         this->pid_measure_.PerrSetValue = this->pid_measure_.LastSet
 240:Yellow_code/Alg_PID.cpp ****         this->pid_measure_.LastSetValue = this->pid_measure_.SetValue;
 1399              		.loc 1 240 41 view .LVU374
 1400 02c4 E363     		str	r3, [r4, #60]	@ float	@ _51, this_66(D)->pid_measure_.PerrSetValue
 241:Yellow_code/Alg_PID.cpp ****         this->pid_measure_.LastDerror = this->pid_measure_.Derror;
 1401              		.loc 1 241 9 is_stmt 1 view .LVU375
ARM GAS  C:\Users\28212\AppData\Local\Temp\ccBXSG2d.s 			page 38


 1402              	@ Yellow_code/Alg_PID.cpp:241:         this->pid_measure_.LastSetValue = this->pid_measure_.SetValu
 241:Yellow_code/Alg_PID.cpp ****         this->pid_measure_.LastDerror = this->pid_measure_.Derror;
 1403              		.loc 1 241 62 is_stmt 0 view .LVU376
 1404 02c6 636B     		ldr	r3, [r4, #52]	@ float	@ _52, this_66(D)->pid_measure_.SetValue
 1405              	@ Yellow_code/Alg_PID.cpp:241:         this->pid_measure_.LastSetValue = this->pid_measure_.SetValu
 241:Yellow_code/Alg_PID.cpp ****         this->pid_measure_.LastDerror = this->pid_measure_.Derror;
 1406              		.loc 1 241 41 view .LVU377
 1407 02c8 A363     		str	r3, [r4, #56]	@ float	@ _52, this_66(D)->pid_measure_.LastSetValue
 242:Yellow_code/Alg_PID.cpp ****         this->pid_measure_.LastError = this->pid_measure_.error;
 1408              		.loc 1 242 9 is_stmt 1 view .LVU378
 1409              	@ Yellow_code/Alg_PID.cpp:242:         this->pid_measure_.LastDerror = this->pid_measure_.Derror;
 242:Yellow_code/Alg_PID.cpp ****         this->pid_measure_.LastError = this->pid_measure_.error;
 1410              		.loc 1 242 60 is_stmt 0 view .LVU379
 1411 02ca 236E     		ldr	r3, [r4, #96]	@ float	@ _53, this_66(D)->pid_measure_.Derror
 1412              	@ Yellow_code/Alg_PID.cpp:242:         this->pid_measure_.LastDerror = this->pid_measure_.Derror;
 242:Yellow_code/Alg_PID.cpp ****         this->pid_measure_.LastError = this->pid_measure_.error;
 1413              		.loc 1 242 39 view .LVU380
 1414 02cc 6366     		str	r3, [r4, #100]	@ float	@ _53, this_66(D)->pid_measure_.LastDerror
 243:Yellow_code/Alg_PID.cpp **** 
 1415              		.loc 1 243 9 is_stmt 1 view .LVU381
 1416              	@ Yellow_code/Alg_PID.cpp:243:         this->pid_measure_.LastError = this->pid_measure_.error;
 243:Yellow_code/Alg_PID.cpp **** 
 1417              		.loc 1 243 59 is_stmt 0 view .LVU382
 1418 02ce E36E     		ldr	r3, [r4, #108]	@ float	@ _54, this_66(D)->pid_measure_.error
 1419              	@ Yellow_code/Alg_PID.cpp:243:         this->pid_measure_.LastError = this->pid_measure_.error;
 243:Yellow_code/Alg_PID.cpp **** 
 1420              		.loc 1 243 38 view .LVU383
 1421 02d0 2367     		str	r3, [r4, #112]	@ float	@ _54, this_66(D)->pid_measure_.LastError
 245:Yellow_code/Alg_PID.cpp ****     }
 1422              		.loc 1 245 9 is_stmt 1 view .LVU384
 1423              	@ Yellow_code/Alg_PID.cpp:246:     }
 246:Yellow_code/Alg_PID.cpp **** 
 1424              		.loc 1 246 5 is_stmt 0 view .LVU385
 1425 02d2 94ED170A 		vldr.32	s0, [r4, #92]	@, this_66(D)->pid_measure_.out
 1426 02d6 BDEC048B 		vldm	sp!, {d8-d9}	@,
 1427              	.LCFI15:
 1428              		.cfi_restore 82
 1429              		.cfi_restore 83
 1430              		.cfi_restore 80
 1431              		.cfi_restore 81
 1432              		.cfi_def_cfa_offset 16
 1433 02da 38BD     		pop	{r3, r4, r5, pc}	@
 1434              	.LVL64:
 1435              	.L67:
 246:Yellow_code/Alg_PID.cpp **** 
 1436              		.loc 1 246 5 view .LVU386
 1437              		.align	2
 1438              	.L66:
 1439 02dc 00000000 		.word	0
 1440              		.cfi_endproc
 1441              	.LFE16:
 1442              		.size	_ZN9Algorithm9pid_alg_c17ECF_PID_CalculateEf, .-_ZN9Algorithm9pid_alg_c17ECF_PID_CalculateEf
 1443              		.text
 1444              	.Letext0:
 1445              		.file 4 "d:\\gcc-arm-none-eabi-10.3-2021.10\\arm-none-eabi\\include\\c++\\10.3.1\\cstdint"
 1446              		.file 5 "d:\\gcc-arm-none-eabi-10.3-2021.10\\arm-none-eabi\\include\\c++\\10.3.1\\arm-none-eabi\\t
 1447              		.file 6 "d:\\gcc-arm-none-eabi-10.3-2021.10\\arm-none-eabi\\include\\machine\\_default_types.h"
ARM GAS  C:\Users\28212\AppData\Local\Temp\ccBXSG2d.s 			page 39


 1448              		.file 7 "d:\\gcc-arm-none-eabi-10.3-2021.10\\arm-none-eabi\\include\\sys\\_stdint.h"
 1449              		.file 8 "d:\\gcc-arm-none-eabi-10.3-2021.10\\arm-none-eabi\\include\\stdint.h"
 1450              		.file 9 "Yellow_code/filter.hpp"
 1451              		.file 10 "<built-in>"