ARM GAS  C:\Users\28212\AppData\Local\Temp\ccuoOQp9.s 			page 1


   1              		.cpu cortex-m7
   2              		.arch armv7e-m
   3              		.fpu fpv5-d16
   4              		.eabi_attribute 28, 1	@ Tag_ABI_VFP_args
   5              		.eabi_attribute 20, 1	@ Tag_ABI_FP_denormal
   6              		.eabi_attribute 21, 1	@ Tag_ABI_FP_exceptions
   7              		.eabi_attribute 23, 3	@ Tag_ABI_FP_number_model
   8              		.eabi_attribute 24, 1	@ Tag_ABI_align8_needed
   9              		.eabi_attribute 25, 1	@ Tag_ABI_align8_preserved
  10              		.eabi_attribute 26, 1	@ Tag_ABI_enum_size
  11              		.eabi_attribute 30, 1	@ Tag_ABI_optimization_goals
  12              		.eabi_attribute 34, 1	@ Tag_CPU_unaligned_access
  13              		.eabi_attribute 18, 4	@ Tag_ABI_PCS_wchar_t
  14              		.file	"filter.cpp"
  15              	@ GNU C++14 (GNU Arm Embedded Toolchain 10.3-2021.10) version 10.3.1 20210824 (release) (arm-none-e
  16              	@	compiled by GNU C version 7.3-win32 20180312, GMP version 6.1.0, MPFR version 3.1.4, MPC version 
  17              	
  18              	@ GGC heuristics: --param ggc-min-expand=100 --param ggc-min-heapsize=131072
  19              	@ options passed:  -I Core/Inc -I Drivers/STM32H7xx_HAL_Driver/Inc
  20              	@ -I Drivers/STM32H7xx_HAL_Driver/Inc/Legacy
  21              	@ -I Middlewares/Third_Party/FreeRTOS/Source/include
  22              	@ -I Middlewares/Third_Party/FreeRTOS/Source/CMSIS_RTOS
  23              	@ -I Middlewares/Third_Party/FreeRTOS/Source/portable/GCC/ARM_CM4F
  24              	@ -I Drivers/CMSIS/Device/ST/STM32H7xx/Include -I Drivers/CMSIS/Include
  25              	@ -I Middlewares/ST/ARM/DSP/Inc -I Core/Inc -I ACE_ECF_25
  26              	@ -I ACE_ECF_25/Algorithm/filter_alg -I ACE_ECF_25/Algorithm/PID
  27              	@ -I ACE_ECF_25/Algorithm/user_maths
  28              	@ -I ACE_ECF_25/Algorithm/user_maths/cpp_files -I ACE_ECF_25/Bsp/can
  29              	@ -I ACE_ECF_25/Bsp/dwt -I ACE_ECF_25/module -I ACE_ECF_25/module/motor
  30              	@ -I ACE_ECF_25/module/motor/DJImotor -imultilib thumb/v7e-m+dp/hard
  31              	@ -iprefix d:\gcc-arm-none-eabi-10.3-2021.10\bin\../lib/gcc/arm-none-eabi/10.3.1/
  32              	@ -isysroot d:\gcc-arm-none-eabi-10.3-2021.10\bin\../arm-none-eabi
  33              	@ -MMD build/filter.d -MF build/filter.d -MP -MQ build/filter.o
  34              	@ -D__USES_INITFINI__ -D USE_HAL_DRIVER -D STM32H723xx
  35              	@ ACE_ECF_25/Algorithm/filter_alg/filter.cpp -mcpu=cortex-m7 -mthumb
  36              	@ -mfpu=fpv5-d16 -mfloat-abi=hard -mlibarch=armv7e-m+fp.dp
  37              	@ -march=armv7e-m+fp.dp -auxbase-strip build/filter.o -g -gdwarf-2 -g
  38              	@ -ggdb3 -Og -Wall -fno-rtti -fno-exceptions -fverbose-asm -fdata-sections
  39              	@ -ffunction-sections -fpermissive
  40              	@ options enabled:  -faggressive-loop-optimizations -fallocation-dce
  41              	@ -fauto-inc-dec -fcombine-stack-adjustments -fcompare-elim
  42              	@ -fcprop-registers -fdata-sections -fdefer-pop
  43              	@ -fdelete-null-pointer-checks -fdwarf2-cfi-asm -fearly-inlining
  44              	@ -feliminate-unused-debug-symbols -feliminate-unused-debug-types
  45              	@ -fforward-propagate -ffp-int-builtin-inexact -ffunction-cse
  46              	@ -ffunction-sections -fgcse-lm -fgnu-unique -fguess-branch-probability
  47              	@ -fident -finline -finline-atomics -fipa-profile -fipa-pure-const
  48              	@ -fipa-reference -fipa-reference-addressable -fipa-stack-alignment
  49              	@ -fira-hoist-pressure -fira-share-save-slots -fira-share-spill-slots
  50              	@ -fivopts -fkeep-static-consts -fleading-underscore -flifetime-dse
  51              	@ -fmath-errno -fmerge-constants -fmerge-debug-strings -fomit-frame-pointer
  52              	@ -fpeephole -fplt -fprefetch-loop-arrays -freg-struct-return
  53              	@ -freorder-blocks -fsched-critical-path-heuristic
  54              	@ -fsched-dep-count-heuristic -fsched-group-heuristic -fsched-interblock
  55              	@ -fsched-last-insn-heuristic -fsched-pressure -fsched-rank-heuristic
  56              	@ -fsched-spec -fsched-spec-insn-heuristic -fsched-stalled-insns-dep
  57              	@ -fsection-anchors -fsemantic-interposition -fshow-column -fshrink-wrap
ARM GAS  C:\Users\28212\AppData\Local\Temp\ccuoOQp9.s 			page 2


  58              	@ -fshrink-wrap-separate -fsigned-zeros -fsplit-ivs-in-unroller
  59              	@ -fsplit-wide-types -fssa-backprop -fstdarg-opt
  60              	@ -fstrict-volatile-bitfields -fsync-libcalls -ftoplevel-reorder
  61              	@ -ftrapping-math -ftree-builtin-call-dce -ftree-ccp -ftree-ch
  62              	@ -ftree-coalesce-vars -ftree-copy-prop -ftree-cselim -ftree-dce
  63              	@ -ftree-dominator-opts -ftree-forwprop -ftree-fre -ftree-loop-if-convert
  64              	@ -ftree-loop-im -ftree-loop-ivcanon -ftree-loop-optimize
  65              	@ -ftree-parallelize-loops= -ftree-phiprop -ftree-reassoc -ftree-scev-cprop
  66              	@ -ftree-sink -ftree-slsr -ftree-ter -funit-at-a-time -fvar-tracking
  67              	@ -fvar-tracking-assignments -fverbose-asm -fzero-initialized-in-bss
  68              	@ -masm-syntax-unified -mbe32 -mlittle-endian -mpic-data-is-text-relative
  69              	@ -msched-prolog -mthumb -munaligned-access -mvectorize-with-neon-quad
  70              	
  71              		.text
  72              	.Ltext0:
  73              		.cfi_sections	.debug_frame
  74              		.section	.text._ZN9Algorithm20first_order_filter_cC2Ef,"ax",%progbits
  75              		.align	1
  76              		.global	_ZN9Algorithm20first_order_filter_cC2Ef
  77              		.syntax unified
  78              		.thumb
  79              		.thumb_func
  80              		.type	_ZN9Algorithm20first_order_filter_cC2Ef, %function
  81              	_ZN9Algorithm20first_order_filter_cC2Ef:
  82              	.LVL0:
  83              	.LFB1:
  84              		.file 1 "ACE_ECF_25/Algorithm/filter_alg/filter.cpp"
   1:ACE_ECF_25/Algorithm/filter_alg/filter.cpp **** /**
   2:ACE_ECF_25/Algorithm/filter_alg/filter.cpp ****  * @file filter.cpp
   3:ACE_ECF_25/Algorithm/filter_alg/filter.cpp ****  * @author Lann 梁健蘅 (rendezook@qq.com)
   4:ACE_ECF_25/Algorithm/filter_alg/filter.cpp ****  * @brief 
   5:ACE_ECF_25/Algorithm/filter_alg/filter.cpp ****  * @version 0.1
   6:ACE_ECF_25/Algorithm/filter_alg/filter.cpp ****  * @date 2024-10-10
   7:ACE_ECF_25/Algorithm/filter_alg/filter.cpp ****  * 
   8:ACE_ECF_25/Algorithm/filter_alg/filter.cpp ****  * @copyright Copyright (c) 2024
   9:ACE_ECF_25/Algorithm/filter_alg/filter.cpp ****  * 
  10:ACE_ECF_25/Algorithm/filter_alg/filter.cpp ****  */
  11:ACE_ECF_25/Algorithm/filter_alg/filter.cpp **** #include "filter.hpp"
  12:ACE_ECF_25/Algorithm/filter_alg/filter.cpp **** 
  13:ACE_ECF_25/Algorithm/filter_alg/filter.cpp **** namespace Algorithm
  14:ACE_ECF_25/Algorithm/filter_alg/filter.cpp **** {
  15:ACE_ECF_25/Algorithm/filter_alg/filter.cpp ****     /***************************一阶低通滤波********************************************** */
  16:ACE_ECF_25/Algorithm/filter_alg/filter.cpp ****     /**
  17:ACE_ECF_25/Algorithm/filter_alg/filter.cpp ****      * @brief 一阶低通滤波初始化
  18:ACE_ECF_25/Algorithm/filter_alg/filter.cpp ****      * @param num 一阶滤波系数
  19:ACE_ECF_25/Algorithm/filter_alg/filter.cpp ****      * @note 滤波系数在 0~1.0 区间, 超出这个范围则默认为 1
  20:ACE_ECF_25/Algorithm/filter_alg/filter.cpp ****      * @note 系数越小, 得到的波形越平滑, 但是也更加迟钝
  21:ACE_ECF_25/Algorithm/filter_alg/filter.cpp ****     */
  22:ACE_ECF_25/Algorithm/filter_alg/filter.cpp ****     first_order_filter_c::first_order_filter_c(float num)
  85              		.loc 1 22 5 view -0
  86              		.cfi_startproc
  87              		@ args = 0, pretend = 0, frame = 0
  88              		@ frame_needed = 0, uses_anonymous_args = 0
  89              		@ link register save eliminated.
  90              	.LBB2:
  23:ACE_ECF_25/Algorithm/filter_alg/filter.cpp ****     {
  24:ACE_ECF_25/Algorithm/filter_alg/filter.cpp ****         if (num > 0.0 && num < 1.0)
ARM GAS  C:\Users\28212\AppData\Local\Temp\ccuoOQp9.s 			page 3


  91              		.loc 1 24 9 view .LVU1
  92 0000 B5EEC00A 		vcmpe.f32	s0, #0	@ num
  93 0004 F1EE10FA 		vmrs	APSR_nzcv, FPSCR
  94 0008 06DD     		ble	.L2		@,
  95              	@ ACE_ECF_25/Algorithm/filter_alg/filter.cpp:24:         if (num > 0.0 && num < 1.0)
  96              		.loc 1 24 23 is_stmt 0 discriminator 1 view .LVU2
  97 000a F7EE007A 		vmov.f32	s15, #1.0e+0	@ tmp117,
  98 000e B4EEE70A 		vcmpe.f32	s0, s15	@ num, tmp117
  99 0012 F1EE10FA 		vmrs	APSR_nzcv, FPSCR
 100 0016 07D4     		bmi	.L8		@,
 101              	.L2:
  25:ACE_ECF_25/Algorithm/filter_alg/filter.cpp ****         {
  26:ACE_ECF_25/Algorithm/filter_alg/filter.cpp ****             this->measure.input = 0;
  27:ACE_ECF_25/Algorithm/filter_alg/filter.cpp ****             this->measure.last_input = 0;
  28:ACE_ECF_25/Algorithm/filter_alg/filter.cpp ****             this->measure.num = num;
  29:ACE_ECF_25/Algorithm/filter_alg/filter.cpp ****             this->measure.out = 0;
  30:ACE_ECF_25/Algorithm/filter_alg/filter.cpp ****         }
  31:ACE_ECF_25/Algorithm/filter_alg/filter.cpp ****         else
  32:ACE_ECF_25/Algorithm/filter_alg/filter.cpp ****         {
  33:ACE_ECF_25/Algorithm/filter_alg/filter.cpp ****             this->measure.input = 0;
 102              		.loc 1 33 13 is_stmt 1 view .LVU3
 103              	@ ACE_ECF_25/Algorithm/filter_alg/filter.cpp:33:             this->measure.input = 0;
 104              		.loc 1 33 33 is_stmt 0 view .LVU4
 105 0018 0023     		movs	r3, #0	@ tmp121,
 106 001a 0360     		str	r3, [r0]	@ float	@ tmp121, this_3(D)->measure.input
  34:ACE_ECF_25/Algorithm/filter_alg/filter.cpp ****             this->measure.last_input = 0;
 107              		.loc 1 34 13 is_stmt 1 view .LVU5
 108              	@ ACE_ECF_25/Algorithm/filter_alg/filter.cpp:34:             this->measure.last_input = 0;
 109              		.loc 1 34 38 is_stmt 0 view .LVU6
 110 001c 4360     		str	r3, [r0, #4]	@ float	@ tmp121, this_3(D)->measure.last_input
  35:ACE_ECF_25/Algorithm/filter_alg/filter.cpp ****             this->measure.num = 1;
 111              		.loc 1 35 13 is_stmt 1 view .LVU7
 112              	@ ACE_ECF_25/Algorithm/filter_alg/filter.cpp:35:             this->measure.num = 1;
 113              		.loc 1 35 31 is_stmt 0 view .LVU8
 114 001e 4FF07E52 		mov	r2, #1065353216	@ tmp123,
 115 0022 C260     		str	r2, [r0, #12]	@ float	@ tmp123, this_3(D)->measure.num
  36:ACE_ECF_25/Algorithm/filter_alg/filter.cpp ****             this->measure.out = 0;
 116              		.loc 1 36 13 is_stmt 1 view .LVU9
 117              	@ ACE_ECF_25/Algorithm/filter_alg/filter.cpp:36:             this->measure.out = 0;
 118              		.loc 1 36 31 is_stmt 0 view .LVU10
 119 0024 8360     		str	r3, [r0, #8]	@ float	@ tmp121, this_3(D)->measure.out
 120              	.LBE2:
 121              	@ ACE_ECF_25/Algorithm/filter_alg/filter.cpp:38:     }
  37:ACE_ECF_25/Algorithm/filter_alg/filter.cpp ****         }
  38:ACE_ECF_25/Algorithm/filter_alg/filter.cpp ****     }
 122              		.loc 1 38 5 view .LVU11
 123 0026 7047     		bx	lr	@
 124              	.L8:
 125              	.LBB3:
  26:ACE_ECF_25/Algorithm/filter_alg/filter.cpp ****             this->measure.last_input = 0;
 126              		.loc 1 26 13 is_stmt 1 view .LVU12
 127              	@ ACE_ECF_25/Algorithm/filter_alg/filter.cpp:26:             this->measure.input = 0;
  26:ACE_ECF_25/Algorithm/filter_alg/filter.cpp ****             this->measure.last_input = 0;
 128              		.loc 1 26 33 is_stmt 0 view .LVU13
 129 0028 0023     		movs	r3, #0	@ tmp118,
 130 002a 0360     		str	r3, [r0]	@ float	@ tmp118, this_3(D)->measure.input
  27:ACE_ECF_25/Algorithm/filter_alg/filter.cpp ****             this->measure.num = num;
ARM GAS  C:\Users\28212\AppData\Local\Temp\ccuoOQp9.s 			page 4


 131              		.loc 1 27 13 is_stmt 1 view .LVU14
 132              	@ ACE_ECF_25/Algorithm/filter_alg/filter.cpp:27:             this->measure.last_input = 0;
  27:ACE_ECF_25/Algorithm/filter_alg/filter.cpp ****             this->measure.num = num;
 133              		.loc 1 27 38 is_stmt 0 view .LVU15
 134 002c 4360     		str	r3, [r0, #4]	@ float	@ tmp118, this_3(D)->measure.last_input
  28:ACE_ECF_25/Algorithm/filter_alg/filter.cpp ****             this->measure.out = 0;
 135              		.loc 1 28 13 is_stmt 1 view .LVU16
 136              	@ ACE_ECF_25/Algorithm/filter_alg/filter.cpp:28:             this->measure.num = num;
  28:ACE_ECF_25/Algorithm/filter_alg/filter.cpp ****             this->measure.out = 0;
 137              		.loc 1 28 31 is_stmt 0 view .LVU17
 138 002e 80ED030A 		vstr.32	s0, [r0, #12]	@ num, this_3(D)->measure.num
  29:ACE_ECF_25/Algorithm/filter_alg/filter.cpp ****         }
 139              		.loc 1 29 13 is_stmt 1 view .LVU18
 140              	@ ACE_ECF_25/Algorithm/filter_alg/filter.cpp:29:             this->measure.out = 0;
  29:ACE_ECF_25/Algorithm/filter_alg/filter.cpp ****         }
 141              		.loc 1 29 31 is_stmt 0 view .LVU19
 142 0032 8360     		str	r3, [r0, #8]	@ float	@ tmp118, this_3(D)->measure.out
 143 0034 7047     		bx	lr	@
 144              	.LBE3:
 145              		.cfi_endproc
 146              	.LFE1:
 147              		.size	_ZN9Algorithm20first_order_filter_cC2Ef, .-_ZN9Algorithm20first_order_filter_cC2Ef
 148              		.global	_ZN9Algorithm20first_order_filter_cC1Ef
 149              		.thumb_set _ZN9Algorithm20first_order_filter_cC1Ef,_ZN9Algorithm20first_order_filter_cC2Ef
 150              		.section	.text._ZN9Algorithm20first_order_filter_c18first_order_filterEf,"ax",%progbits
 151              		.align	1
 152              		.global	_ZN9Algorithm20first_order_filter_c18first_order_filterEf
 153              		.syntax unified
 154              		.thumb
 155              		.thumb_func
 156              		.type	_ZN9Algorithm20first_order_filter_c18first_order_filterEf, %function
 157              	_ZN9Algorithm20first_order_filter_c18first_order_filterEf:
 158              	.LVL1:
 159              	.LFB3:
  39:ACE_ECF_25/Algorithm/filter_alg/filter.cpp **** 
  40:ACE_ECF_25/Algorithm/filter_alg/filter.cpp ****     /**
  41:ACE_ECF_25/Algorithm/filter_alg/filter.cpp ****      * @brief 一阶低通滤波计算
  42:ACE_ECF_25/Algorithm/filter_alg/filter.cpp ****      * @param input 采样值
  43:ACE_ECF_25/Algorithm/filter_alg/filter.cpp ****      * @return 输出值
  44:ACE_ECF_25/Algorithm/filter_alg/filter.cpp ****     */
  45:ACE_ECF_25/Algorithm/filter_alg/filter.cpp ****     float first_order_filter_c::first_order_filter(float input)
  46:ACE_ECF_25/Algorithm/filter_alg/filter.cpp ****     {
 160              		.loc 1 46 5 is_stmt 1 view -0
 161              		.cfi_startproc
 162              		@ args = 0, pretend = 0, frame = 0
 163              		@ frame_needed = 0, uses_anonymous_args = 0
 164              		@ link register save eliminated.
  47:ACE_ECF_25/Algorithm/filter_alg/filter.cpp ****         this->measure.input = input;
 165              		.loc 1 47 9 view .LVU21
 166              	@ ACE_ECF_25/Algorithm/filter_alg/filter.cpp:47:         this->measure.input = input;
 167              		.loc 1 47 29 is_stmt 0 view .LVU22
 168 0000 80ED000A 		vstr.32	s0, [r0]	@ input, this_8(D)->measure.input
  48:ACE_ECF_25/Algorithm/filter_alg/filter.cpp ****         this->measure.out = this->measure.input * this->measure.num + (1 - this->measure.num) * thi
 169              		.loc 1 48 9 is_stmt 1 view .LVU23
 170              	@ ACE_ECF_25/Algorithm/filter_alg/filter.cpp:48:         this->measure.out = this->measure.input * 
 171              		.loc 1 48 65 is_stmt 0 view .LVU24
 172 0004 90ED037A 		vldr.32	s14, [r0, #12]	@ _1, this_8(D)->measure.num
ARM GAS  C:\Users\28212\AppData\Local\Temp\ccuoOQp9.s 			page 5


 173              	@ ACE_ECF_25/Algorithm/filter_alg/filter.cpp:48:         this->measure.out = this->measure.input * 
 174              		.loc 1 48 49 view .LVU25
 175 0008 27EE000A 		vmul.f32	s0, s14, s0	@ _2, _1, input
 176              	.LVL2:
 177              	@ ACE_ECF_25/Algorithm/filter_alg/filter.cpp:48:         this->measure.out = this->measure.input * 
 178              		.loc 1 48 74 view .LVU26
 179 000c F7EE007A 		vmov.f32	s15, #1.0e+0	@ tmp121,
 180 0010 77EEC77A 		vsub.f32	s15, s15, s14	@ _3, tmp121, _1
 181              	@ ACE_ECF_25/Algorithm/filter_alg/filter.cpp:48:         this->measure.out = this->measure.input * 
 182              		.loc 1 48 111 view .LVU27
 183 0014 90ED017A 		vldr.32	s14, [r0, #4]	@ _4, this_8(D)->measure.last_input
 184              	@ ACE_ECF_25/Algorithm/filter_alg/filter.cpp:48:         this->measure.out = this->measure.input * 
 185              		.loc 1 48 95 view .LVU28
 186 0018 67EE877A 		vmul.f32	s15, s15, s14	@ _5, _3, _4
 187              	@ ACE_ECF_25/Algorithm/filter_alg/filter.cpp:48:         this->measure.out = this->measure.input * 
 188              		.loc 1 48 69 view .LVU29
 189 001c 30EE270A 		vadd.f32	s0, s0, s15	@ <retval>, _2, _5
 190              	@ ACE_ECF_25/Algorithm/filter_alg/filter.cpp:48:         this->measure.out = this->measure.input * 
 191              		.loc 1 48 27 view .LVU30
 192 0020 80ED020A 		vstr.32	s0, [r0, #8]	@ <retval>, this_8(D)->measure.out
  49:ACE_ECF_25/Algorithm/filter_alg/filter.cpp ****         this->measure.last_input = this->measure.out;
 193              		.loc 1 49 9 is_stmt 1 view .LVU31
 194              	@ ACE_ECF_25/Algorithm/filter_alg/filter.cpp:49:         this->measure.last_input = this->measure.o
 195              		.loc 1 49 34 is_stmt 0 view .LVU32
 196 0024 80ED010A 		vstr.32	s0, [r0, #4]	@ <retval>, this_8(D)->measure.last_input
  50:ACE_ECF_25/Algorithm/filter_alg/filter.cpp **** 
  51:ACE_ECF_25/Algorithm/filter_alg/filter.cpp ****         return this->measure.out;
 197              		.loc 1 51 9 is_stmt 1 view .LVU33
 198              	@ ACE_ECF_25/Algorithm/filter_alg/filter.cpp:52:     }
  52:ACE_ECF_25/Algorithm/filter_alg/filter.cpp ****     }
 199              		.loc 1 52 5 is_stmt 0 view .LVU34
 200 0028 7047     		bx	lr	@
 201              		.cfi_endproc
 202              	.LFE3:
 203              		.size	_ZN9Algorithm20first_order_filter_c18first_order_filterEf, .-_ZN9Algorithm20first_order_filt
 204              		.section	.text._ZN9Algorithm20first_order_filter_c23first_order_filter_initEf,"ax",%progbits
 205              		.align	1
 206              		.global	_ZN9Algorithm20first_order_filter_c23first_order_filter_initEf
 207              		.syntax unified
 208              		.thumb
 209              		.thumb_func
 210              		.type	_ZN9Algorithm20first_order_filter_c23first_order_filter_initEf, %function
 211              	_ZN9Algorithm20first_order_filter_c23first_order_filter_initEf:
 212              	.LVL3:
 213              	.LFB4:
  53:ACE_ECF_25/Algorithm/filter_alg/filter.cpp **** 
  54:ACE_ECF_25/Algorithm/filter_alg/filter.cpp ****     /**
  55:ACE_ECF_25/Algorithm/filter_alg/filter.cpp ****      * @brief 一阶低通滤波初始化
  56:ACE_ECF_25/Algorithm/filter_alg/filter.cpp ****      * @param num 一阶滤波系数
  57:ACE_ECF_25/Algorithm/filter_alg/filter.cpp ****      * @note 滤波系数在 0~1.0 区间, 超出这个范围则默认为 1
  58:ACE_ECF_25/Algorithm/filter_alg/filter.cpp ****      * @note 系数越小, 得到的波形越平滑, 但是也更加迟钝
  59:ACE_ECF_25/Algorithm/filter_alg/filter.cpp ****     */
  60:ACE_ECF_25/Algorithm/filter_alg/filter.cpp ****     void first_order_filter_c::first_order_filter_init(float num)
  61:ACE_ECF_25/Algorithm/filter_alg/filter.cpp ****     {
 214              		.loc 1 61 5 is_stmt 1 view -0
 215              		.cfi_startproc
 216              		@ args = 0, pretend = 0, frame = 0
ARM GAS  C:\Users\28212\AppData\Local\Temp\ccuoOQp9.s 			page 6


 217              		@ frame_needed = 0, uses_anonymous_args = 0
 218              		@ link register save eliminated.
  62:ACE_ECF_25/Algorithm/filter_alg/filter.cpp ****         if (num > 0.0 && num < 1.0)
 219              		.loc 1 62 9 view .LVU36
 220 0000 B5EEC00A 		vcmpe.f32	s0, #0	@ num
 221 0004 F1EE10FA 		vmrs	APSR_nzcv, FPSCR
 222 0008 06DD     		ble	.L11		@,
 223              	@ ACE_ECF_25/Algorithm/filter_alg/filter.cpp:62:         if (num > 0.0 && num < 1.0)
 224              		.loc 1 62 23 is_stmt 0 discriminator 1 view .LVU37
 225 000a F7EE007A 		vmov.f32	s15, #1.0e+0	@ tmp116,
 226 000e B4EEE70A 		vcmpe.f32	s0, s15	@ num, tmp116
 227 0012 F1EE10FA 		vmrs	APSR_nzcv, FPSCR
 228 0016 07D4     		bmi	.L17		@,
 229              	.L11:
  63:ACE_ECF_25/Algorithm/filter_alg/filter.cpp ****         {
  64:ACE_ECF_25/Algorithm/filter_alg/filter.cpp ****             this->measure.input = 0;
  65:ACE_ECF_25/Algorithm/filter_alg/filter.cpp ****             this->measure.last_input = 0;
  66:ACE_ECF_25/Algorithm/filter_alg/filter.cpp ****             this->measure.num = num;
  67:ACE_ECF_25/Algorithm/filter_alg/filter.cpp ****             this->measure.out = 0;
  68:ACE_ECF_25/Algorithm/filter_alg/filter.cpp ****         }
  69:ACE_ECF_25/Algorithm/filter_alg/filter.cpp ****         else
  70:ACE_ECF_25/Algorithm/filter_alg/filter.cpp ****         {
  71:ACE_ECF_25/Algorithm/filter_alg/filter.cpp ****             this->measure.input = 0;
 230              		.loc 1 71 13 is_stmt 1 view .LVU38
 231              	@ ACE_ECF_25/Algorithm/filter_alg/filter.cpp:71:             this->measure.input = 0;
 232              		.loc 1 71 33 is_stmt 0 view .LVU39
 233 0018 0023     		movs	r3, #0	@ tmp120,
 234 001a 0360     		str	r3, [r0]	@ float	@ tmp120, this_4(D)->measure.input
  72:ACE_ECF_25/Algorithm/filter_alg/filter.cpp ****             this->measure.last_input = 0;
 235              		.loc 1 72 13 is_stmt 1 view .LVU40
 236              	@ ACE_ECF_25/Algorithm/filter_alg/filter.cpp:72:             this->measure.last_input = 0;
 237              		.loc 1 72 38 is_stmt 0 view .LVU41
 238 001c 4360     		str	r3, [r0, #4]	@ float	@ tmp120, this_4(D)->measure.last_input
  73:ACE_ECF_25/Algorithm/filter_alg/filter.cpp ****             this->measure.num = 1;
 239              		.loc 1 73 13 is_stmt 1 view .LVU42
 240              	@ ACE_ECF_25/Algorithm/filter_alg/filter.cpp:73:             this->measure.num = 1;
 241              		.loc 1 73 31 is_stmt 0 view .LVU43
 242 001e 4FF07E52 		mov	r2, #1065353216	@ tmp122,
 243 0022 C260     		str	r2, [r0, #12]	@ float	@ tmp122, this_4(D)->measure.num
  74:ACE_ECF_25/Algorithm/filter_alg/filter.cpp ****             this->measure.out = 0;
 244              		.loc 1 74 13 is_stmt 1 view .LVU44
 245              	@ ACE_ECF_25/Algorithm/filter_alg/filter.cpp:74:             this->measure.out = 0;
 246              		.loc 1 74 31 is_stmt 0 view .LVU45
 247 0024 8360     		str	r3, [r0, #8]	@ float	@ tmp120, this_4(D)->measure.out
 248              	@ ACE_ECF_25/Algorithm/filter_alg/filter.cpp:76:     }
  75:ACE_ECF_25/Algorithm/filter_alg/filter.cpp ****         }
  76:ACE_ECF_25/Algorithm/filter_alg/filter.cpp ****     }
 249              		.loc 1 76 5 view .LVU46
 250 0026 7047     		bx	lr	@
 251              	.L17:
  64:ACE_ECF_25/Algorithm/filter_alg/filter.cpp ****             this->measure.last_input = 0;
 252              		.loc 1 64 13 is_stmt 1 view .LVU47
 253              	@ ACE_ECF_25/Algorithm/filter_alg/filter.cpp:64:             this->measure.input = 0;
  64:ACE_ECF_25/Algorithm/filter_alg/filter.cpp ****             this->measure.last_input = 0;
 254              		.loc 1 64 33 is_stmt 0 view .LVU48
 255 0028 0023     		movs	r3, #0	@ tmp117,
 256 002a 0360     		str	r3, [r0]	@ float	@ tmp117, this_4(D)->measure.input
ARM GAS  C:\Users\28212\AppData\Local\Temp\ccuoOQp9.s 			page 7


  65:ACE_ECF_25/Algorithm/filter_alg/filter.cpp ****             this->measure.num = num;
 257              		.loc 1 65 13 is_stmt 1 view .LVU49
 258              	@ ACE_ECF_25/Algorithm/filter_alg/filter.cpp:65:             this->measure.last_input = 0;
  65:ACE_ECF_25/Algorithm/filter_alg/filter.cpp ****             this->measure.num = num;
 259              		.loc 1 65 38 is_stmt 0 view .LVU50
 260 002c 4360     		str	r3, [r0, #4]	@ float	@ tmp117, this_4(D)->measure.last_input
  66:ACE_ECF_25/Algorithm/filter_alg/filter.cpp ****             this->measure.out = 0;
 261              		.loc 1 66 13 is_stmt 1 view .LVU51
 262              	@ ACE_ECF_25/Algorithm/filter_alg/filter.cpp:66:             this->measure.num = num;
  66:ACE_ECF_25/Algorithm/filter_alg/filter.cpp ****             this->measure.out = 0;
 263              		.loc 1 66 31 is_stmt 0 view .LVU52
 264 002e 80ED030A 		vstr.32	s0, [r0, #12]	@ num, this_4(D)->measure.num
  67:ACE_ECF_25/Algorithm/filter_alg/filter.cpp ****         }
 265              		.loc 1 67 13 is_stmt 1 view .LVU53
 266              	@ ACE_ECF_25/Algorithm/filter_alg/filter.cpp:67:             this->measure.out = 0;
  67:ACE_ECF_25/Algorithm/filter_alg/filter.cpp ****         }
 267              		.loc 1 67 31 is_stmt 0 view .LVU54
 268 0032 8360     		str	r3, [r0, #8]	@ float	@ tmp117, this_4(D)->measure.out
 269 0034 7047     		bx	lr	@
 270              		.cfi_endproc
 271              	.LFE4:
 272              		.size	_ZN9Algorithm20first_order_filter_c23first_order_filter_initEf, .-_ZN9Algorithm20first_order
 273              		.section	.text._ZN9Algorithm20first_order_filter_c24first_order_filter_clearEv,"ax",%progbits
 274              		.align	1
 275              		.global	_ZN9Algorithm20first_order_filter_c24first_order_filter_clearEv
 276              		.syntax unified
 277              		.thumb
 278              		.thumb_func
 279              		.type	_ZN9Algorithm20first_order_filter_c24first_order_filter_clearEv, %function
 280              	_ZN9Algorithm20first_order_filter_c24first_order_filter_clearEv:
 281              	.LVL4:
 282              	.LFB5:
  77:ACE_ECF_25/Algorithm/filter_alg/filter.cpp **** 
  78:ACE_ECF_25/Algorithm/filter_alg/filter.cpp **** 
  79:ACE_ECF_25/Algorithm/filter_alg/filter.cpp ****     /**
  80:ACE_ECF_25/Algorithm/filter_alg/filter.cpp ****      * @brief          一阶低通滤波清除
  81:ACE_ECF_25/Algorithm/filter_alg/filter.cpp ****      * @retval         none
  82:ACE_ECF_25/Algorithm/filter_alg/filter.cpp ****      * @attention      只是清除所有计算的数据，不会清除系数
  83:ACE_ECF_25/Algorithm/filter_alg/filter.cpp ****      */
  84:ACE_ECF_25/Algorithm/filter_alg/filter.cpp ****     void first_order_filter_c::first_order_filter_clear(void)
  85:ACE_ECF_25/Algorithm/filter_alg/filter.cpp ****     {
 283              		.loc 1 85 5 is_stmt 1 view -0
 284              		.cfi_startproc
 285              		@ args = 0, pretend = 0, frame = 0
 286              		@ frame_needed = 0, uses_anonymous_args = 0
 287              		@ link register save eliminated.
  86:ACE_ECF_25/Algorithm/filter_alg/filter.cpp ****         this->measure.last_input = 0;
 288              		.loc 1 86 9 view .LVU56
 289              	@ ACE_ECF_25/Algorithm/filter_alg/filter.cpp:86:         this->measure.last_input = 0;
 290              		.loc 1 86 34 is_stmt 0 view .LVU57
 291 0000 0023     		movs	r3, #0	@ tmp114,
 292 0002 4360     		str	r3, [r0, #4]	@ float	@ tmp114, this_2(D)->measure.last_input
  87:ACE_ECF_25/Algorithm/filter_alg/filter.cpp ****         this->measure.input = 0;
 293              		.loc 1 87 9 is_stmt 1 view .LVU58
 294              	@ ACE_ECF_25/Algorithm/filter_alg/filter.cpp:87:         this->measure.input = 0;
 295              		.loc 1 87 29 is_stmt 0 view .LVU59
 296 0004 0360     		str	r3, [r0]	@ float	@ tmp114, this_2(D)->measure.input
ARM GAS  C:\Users\28212\AppData\Local\Temp\ccuoOQp9.s 			page 8


  88:ACE_ECF_25/Algorithm/filter_alg/filter.cpp ****         this->measure.out = 0;
 297              		.loc 1 88 9 is_stmt 1 view .LVU60
 298              	@ ACE_ECF_25/Algorithm/filter_alg/filter.cpp:88:         this->measure.out = 0;
 299              		.loc 1 88 27 is_stmt 0 view .LVU61
 300 0006 8360     		str	r3, [r0, #8]	@ float	@ tmp114, this_2(D)->measure.out
 301              	@ ACE_ECF_25/Algorithm/filter_alg/filter.cpp:89:     }
  89:ACE_ECF_25/Algorithm/filter_alg/filter.cpp ****     }
 302              		.loc 1 89 5 view .LVU62
 303 0008 7047     		bx	lr	@
 304              		.cfi_endproc
 305              	.LFE5:
 306              		.size	_ZN9Algorithm20first_order_filter_c24first_order_filter_clearEv, .-_ZN9Algorithm20first_orde
 307              		.section	.text._ZN9Algorithm21sliding_mean_filter_cC2Ev,"ax",%progbits
 308              		.align	1
 309              		.global	_ZN9Algorithm21sliding_mean_filter_cC2Ev
 310              		.syntax unified
 311              		.thumb
 312              		.thumb_func
 313              		.type	_ZN9Algorithm21sliding_mean_filter_cC2Ev, %function
 314              	_ZN9Algorithm21sliding_mean_filter_cC2Ev:
 315              	.LVL5:
 316              	.LFB7:
  90:ACE_ECF_25/Algorithm/filter_alg/filter.cpp **** 
  91:ACE_ECF_25/Algorithm/filter_alg/filter.cpp **** 
  92:ACE_ECF_25/Algorithm/filter_alg/filter.cpp ****     /***************************滑动均值滤波**************************************** */
  93:ACE_ECF_25/Algorithm/filter_alg/filter.cpp **** 
  94:ACE_ECF_25/Algorithm/filter_alg/filter.cpp ****     /**
  95:ACE_ECF_25/Algorithm/filter_alg/filter.cpp ****      * @brief 滑动均值滤波初始化
  96:ACE_ECF_25/Algorithm/filter_alg/filter.cpp ****      *
  97:ACE_ECF_25/Algorithm/filter_alg/filter.cpp ****      */
  98:ACE_ECF_25/Algorithm/filter_alg/filter.cpp ****     sliding_mean_filter_c::sliding_mean_filter_c()
 317              		.loc 1 98 5 is_stmt 1 view -0
 318              		.cfi_startproc
 319              		@ args = 0, pretend = 0, frame = 0
 320              		@ frame_needed = 0, uses_anonymous_args = 0
 321              		@ link register save eliminated.
 322              	.LBB4:
  99:ACE_ECF_25/Algorithm/filter_alg/filter.cpp ****     {
 100:ACE_ECF_25/Algorithm/filter_alg/filter.cpp ****         this->measure.count_num = 0;
 323              		.loc 1 100 9 view .LVU64
 324              	@ ACE_ECF_25/Algorithm/filter_alg/filter.cpp:100:         this->measure.count_num = 0;
 325              		.loc 1 100 33 is_stmt 0 view .LVU65
 326 0000 0023     		movs	r3, #0	@ tmp116,
 327 0002 4360     		str	r3, [r0, #4]	@ tmp116, this_4(D)->measure.count_num
 101:ACE_ECF_25/Algorithm/filter_alg/filter.cpp ****         for (int i = 0; i < 20; i++)
 328              		.loc 1 101 9 is_stmt 1 view .LVU66
 329              	.LVL6:
 330              		.loc 1 101 9 is_stmt 0 view .LVU67
 331 0004 05E0     		b	.L21		@
 332              	.LVL7:
 333              	.L22:
 334              	.LBB5:
 102:ACE_ECF_25/Algorithm/filter_alg/filter.cpp ****             this->measure.FIFO[i] = 0.0f;
 335              		.loc 1 102 13 is_stmt 1 discriminator 2 view .LVU68
 336              	@ ACE_ECF_25/Algorithm/filter_alg/filter.cpp:102:             this->measure.FIFO[i] = 0.0f;
 337              		.loc 1 102 35 is_stmt 0 discriminator 2 view .LVU69
 338 0006 1A1D     		adds	r2, r3, #4	@ tmp117, i,
ARM GAS  C:\Users\28212\AppData\Local\Temp\ccuoOQp9.s 			page 9


 339 0008 00EB8202 		add	r2, r0, r2, lsl #2	@ tmp119, this, tmp117,
 340 000c 0021     		movs	r1, #0	@ tmp120,
 341 000e 1160     		str	r1, [r2]	@ float	@ tmp120, this_4(D)->measure.FIFO[i_1]
 101:ACE_ECF_25/Algorithm/filter_alg/filter.cpp ****         for (int i = 0; i < 20; i++)
 342              		.loc 1 101 9 is_stmt 1 discriminator 2 view .LVU70
 343 0010 0133     		adds	r3, r3, #1	@ i, i,
 344              	.LVL8:
 345              	.L21:
 101:ACE_ECF_25/Algorithm/filter_alg/filter.cpp ****         for (int i = 0; i < 20; i++)
 346              		.loc 1 101 27 discriminator 3 view .LVU71
 347 0012 132B     		cmp	r3, #19	@ i,
 348 0014 F7DD     		ble	.L22		@,
 349              	.LBE5:
 103:ACE_ECF_25/Algorithm/filter_alg/filter.cpp ****         this->measure.Input = 0.0f;
 350              		.loc 1 103 9 view .LVU72
 351              	@ ACE_ECF_25/Algorithm/filter_alg/filter.cpp:103:         this->measure.Input = 0.0f;
 352              		.loc 1 103 29 is_stmt 0 view .LVU73
 353 0016 0023     		movs	r3, #0	@ tmp121,
 354              	.LVL9:
 355              		.loc 1 103 29 view .LVU74
 356 0018 0360     		str	r3, [r0]	@ float	@ tmp121, this_4(D)->measure.Input
 104:ACE_ECF_25/Algorithm/filter_alg/filter.cpp ****         this->measure.Output = 0.0f;
 357              		.loc 1 104 9 is_stmt 1 view .LVU75
 358              	@ ACE_ECF_25/Algorithm/filter_alg/filter.cpp:104:         this->measure.Output = 0.0f;
 359              		.loc 1 104 30 is_stmt 0 view .LVU76
 360 001a 8360     		str	r3, [r0, #8]	@ float	@ tmp121, this_4(D)->measure.Output
 105:ACE_ECF_25/Algorithm/filter_alg/filter.cpp ****         this->measure.Sum = 0.0f;
 361              		.loc 1 105 9 is_stmt 1 view .LVU77
 362              	@ ACE_ECF_25/Algorithm/filter_alg/filter.cpp:105:         this->measure.Sum = 0.0f;
 363              		.loc 1 105 27 is_stmt 0 view .LVU78
 364 001c C360     		str	r3, [r0, #12]	@ float	@ tmp121, this_4(D)->measure.Sum
 106:ACE_ECF_25/Algorithm/filter_alg/filter.cpp ****         this->measure.sum_flag = 0;
 365              		.loc 1 106 9 is_stmt 1 view .LVU79
 366              	@ ACE_ECF_25/Algorithm/filter_alg/filter.cpp:106:         this->measure.sum_flag = 0;
 367              		.loc 1 106 32 is_stmt 0 view .LVU80
 368 001e 0023     		movs	r3, #0	@ tmp124,
 369 0020 C0F8F833 		str	r3, [r0, #1016]	@ tmp124, this_4(D)->measure.sum_flag
 370              	.LBE4:
 371              	@ ACE_ECF_25/Algorithm/filter_alg/filter.cpp:107:     }
 107:ACE_ECF_25/Algorithm/filter_alg/filter.cpp ****     }
 372              		.loc 1 107 5 view .LVU81
 373 0024 7047     		bx	lr	@
 374              		.cfi_endproc
 375              	.LFE7:
 376              		.size	_ZN9Algorithm21sliding_mean_filter_cC2Ev, .-_ZN9Algorithm21sliding_mean_filter_cC2Ev
 377              		.global	_ZN9Algorithm21sliding_mean_filter_cC1Ev
 378              		.thumb_set _ZN9Algorithm21sliding_mean_filter_cC1Ev,_ZN9Algorithm21sliding_mean_filter_cC2Ev
 379              		.section	.text._ZN9Algorithm21sliding_mean_filter_c24sliding_mean_filter_initEv,"ax",%progbits
 380              		.align	1
 381              		.global	_ZN9Algorithm21sliding_mean_filter_c24sliding_mean_filter_initEv
 382              		.syntax unified
 383              		.thumb
 384              		.thumb_func
 385              		.type	_ZN9Algorithm21sliding_mean_filter_c24sliding_mean_filter_initEv, %function
 386              	_ZN9Algorithm21sliding_mean_filter_c24sliding_mean_filter_initEv:
 387              	.LVL10:
 388              	.LFB9:
ARM GAS  C:\Users\28212\AppData\Local\Temp\ccuoOQp9.s 			page 10


 108:ACE_ECF_25/Algorithm/filter_alg/filter.cpp **** 
 109:ACE_ECF_25/Algorithm/filter_alg/filter.cpp **** 
 110:ACE_ECF_25/Algorithm/filter_alg/filter.cpp ****     /*
 111:ACE_ECF_25/Algorithm/filter_alg/filter.cpp ****      *功能：滑动均值滤波参数初始化(浮点型)
 112:ACE_ECF_25/Algorithm/filter_alg/filter.cpp ****      *输入：滤波对象结构体
 113:ACE_ECF_25/Algorithm/filter_alg/filter.cpp ****      */
 114:ACE_ECF_25/Algorithm/filter_alg/filter.cpp ****     void sliding_mean_filter_c::sliding_mean_filter_init()
 115:ACE_ECF_25/Algorithm/filter_alg/filter.cpp ****     {
 389              		.loc 1 115 5 is_stmt 1 view -0
 390              		.cfi_startproc
 391              		@ args = 0, pretend = 0, frame = 0
 392              		@ frame_needed = 0, uses_anonymous_args = 0
 393              		@ link register save eliminated.
 116:ACE_ECF_25/Algorithm/filter_alg/filter.cpp ****         this->measure.count_num = 0;
 394              		.loc 1 116 9 view .LVU83
 395              	@ ACE_ECF_25/Algorithm/filter_alg/filter.cpp:116:         this->measure.count_num = 0;
 396              		.loc 1 116 33 is_stmt 0 view .LVU84
 397 0000 0023     		movs	r3, #0	@ tmp115,
 398 0002 4360     		str	r3, [r0, #4]	@ tmp115, this_4(D)->measure.count_num
 117:ACE_ECF_25/Algorithm/filter_alg/filter.cpp ****         for (int i = 0; i < 20; i++)
 399              		.loc 1 117 9 is_stmt 1 view .LVU85
 400              	.LVL11:
 401              		.loc 1 117 9 is_stmt 0 view .LVU86
 402 0004 05E0     		b	.L25		@
 403              	.LVL12:
 404              	.L26:
 405              	.LBB6:
 118:ACE_ECF_25/Algorithm/filter_alg/filter.cpp ****             this->measure.FIFO[i] = 0.0f;
 406              		.loc 1 118 13 is_stmt 1 discriminator 2 view .LVU87
 407              	@ ACE_ECF_25/Algorithm/filter_alg/filter.cpp:118:             this->measure.FIFO[i] = 0.0f;
 408              		.loc 1 118 35 is_stmt 0 discriminator 2 view .LVU88
 409 0006 1A1D     		adds	r2, r3, #4	@ tmp116, i,
 410 0008 00EB8202 		add	r2, r0, r2, lsl #2	@ tmp118, this, tmp116,
 411 000c 0021     		movs	r1, #0	@ tmp119,
 412 000e 1160     		str	r1, [r2]	@ float	@ tmp119, this_4(D)->measure.FIFO[i_1]
 117:ACE_ECF_25/Algorithm/filter_alg/filter.cpp ****         for (int i = 0; i < 20; i++)
 413              		.loc 1 117 9 is_stmt 1 discriminator 2 view .LVU89
 414 0010 0133     		adds	r3, r3, #1	@ i, i,
 415              	.LVL13:
 416              	.L25:
 117:ACE_ECF_25/Algorithm/filter_alg/filter.cpp ****         for (int i = 0; i < 20; i++)
 417              		.loc 1 117 27 discriminator 3 view .LVU90
 418 0012 132B     		cmp	r3, #19	@ i,
 419 0014 F7DD     		ble	.L26		@,
 420              	.LBE6:
 119:ACE_ECF_25/Algorithm/filter_alg/filter.cpp ****         this->measure.Input = 0.0f;
 421              		.loc 1 119 9 view .LVU91
 422              	@ ACE_ECF_25/Algorithm/filter_alg/filter.cpp:119:         this->measure.Input = 0.0f;
 423              		.loc 1 119 29 is_stmt 0 view .LVU92
 424 0016 0023     		movs	r3, #0	@ tmp120,
 425              	.LVL14:
 426              		.loc 1 119 29 view .LVU93
 427 0018 0360     		str	r3, [r0]	@ float	@ tmp120, this_4(D)->measure.Input
 120:ACE_ECF_25/Algorithm/filter_alg/filter.cpp ****         this->measure.Output = 0.0f;
 428              		.loc 1 120 9 is_stmt 1 view .LVU94
 429              	@ ACE_ECF_25/Algorithm/filter_alg/filter.cpp:120:         this->measure.Output = 0.0f;
 430              		.loc 1 120 30 is_stmt 0 view .LVU95
ARM GAS  C:\Users\28212\AppData\Local\Temp\ccuoOQp9.s 			page 11


 431 001a 8360     		str	r3, [r0, #8]	@ float	@ tmp120, this_4(D)->measure.Output
 121:ACE_ECF_25/Algorithm/filter_alg/filter.cpp ****         this->measure.Sum = 0.0f;
 432              		.loc 1 121 9 is_stmt 1 view .LVU96
 433              	@ ACE_ECF_25/Algorithm/filter_alg/filter.cpp:121:         this->measure.Sum = 0.0f;
 434              		.loc 1 121 27 is_stmt 0 view .LVU97
 435 001c C360     		str	r3, [r0, #12]	@ float	@ tmp120, this_4(D)->measure.Sum
 122:ACE_ECF_25/Algorithm/filter_alg/filter.cpp ****         this->measure.sum_flag = 0;
 436              		.loc 1 122 9 is_stmt 1 view .LVU98
 437              	@ ACE_ECF_25/Algorithm/filter_alg/filter.cpp:122:         this->measure.sum_flag = 0;
 438              		.loc 1 122 32 is_stmt 0 view .LVU99
 439 001e 0023     		movs	r3, #0	@ tmp123,
 440 0020 C0F8F833 		str	r3, [r0, #1016]	@ tmp123, this_4(D)->measure.sum_flag
 441              	@ ACE_ECF_25/Algorithm/filter_alg/filter.cpp:123:     }
 123:ACE_ECF_25/Algorithm/filter_alg/filter.cpp ****     }
 442              		.loc 1 123 5 view .LVU100
 443 0024 7047     		bx	lr	@
 444              		.cfi_endproc
 445              	.LFE9:
 446              		.size	_ZN9Algorithm21sliding_mean_filter_c24sliding_mean_filter_initEv, .-_ZN9Algorithm21sliding_m
 447              		.section	.text._ZN9Algorithm21sliding_mean_filter_c19sliding_mean_filterEfi,"ax",%progbits
 448              		.align	1
 449              		.global	_ZN9Algorithm21sliding_mean_filter_c19sliding_mean_filterEfi
 450              		.syntax unified
 451              		.thumb
 452              		.thumb_func
 453              		.type	_ZN9Algorithm21sliding_mean_filter_c19sliding_mean_filterEfi, %function
 454              	_ZN9Algorithm21sliding_mean_filter_c19sliding_mean_filterEfi:
 455              	.LVL15:
 456              	.LFB10:
 124:ACE_ECF_25/Algorithm/filter_alg/filter.cpp **** 
 125:ACE_ECF_25/Algorithm/filter_alg/filter.cpp ****     /*
 126:ACE_ECF_25/Algorithm/filter_alg/filter.cpp ****      *功能：滑动均值滤波（浮点型）------抑制小幅度高频噪声
 127:ACE_ECF_25/Algorithm/filter_alg/filter.cpp ****      *传入：1.滤波对象结构体  2.更新值 3.均值数量
 128:ACE_ECF_25/Algorithm/filter_alg/filter.cpp ****      *传出：滑动滤波输出值（250次）
 129:ACE_ECF_25/Algorithm/filter_alg/filter.cpp ****      */
 130:ACE_ECF_25/Algorithm/filter_alg/filter.cpp ****     float sliding_mean_filter_c::sliding_mean_filter(float Input, int num)
 131:ACE_ECF_25/Algorithm/filter_alg/filter.cpp ****     {
 457              		.loc 1 131 5 is_stmt 1 view -0
 458              		.cfi_startproc
 459              		@ args = 0, pretend = 0, frame = 0
 460              		@ frame_needed = 0, uses_anonymous_args = 0
 461              		@ link register save eliminated.
 132:ACE_ECF_25/Algorithm/filter_alg/filter.cpp ****         // 更新
 133:ACE_ECF_25/Algorithm/filter_alg/filter.cpp ****         this->measure.Input = Input;
 462              		.loc 1 133 9 view .LVU102
 463              	@ ACE_ECF_25/Algorithm/filter_alg/filter.cpp:133:         this->measure.Input = Input;
 464              		.loc 1 133 29 is_stmt 0 view .LVU103
 465 0000 80ED000A 		vstr.32	s0, [r0]	@ Input, this_15(D)->measure.Input
 134:ACE_ECF_25/Algorithm/filter_alg/filter.cpp ****         this->measure.FIFO[this->measure.count_num] = this->measure.Input;
 466              		.loc 1 134 9 is_stmt 1 view .LVU104
 467              	@ ACE_ECF_25/Algorithm/filter_alg/filter.cpp:134:         this->measure.FIFO[this->measure.count_nu
 468              		.loc 1 134 42 is_stmt 0 view .LVU105
 469 0004 4368     		ldr	r3, [r0, #4]	@ _1, this_15(D)->measure.count_num
 470              	@ ACE_ECF_25/Algorithm/filter_alg/filter.cpp:134:         this->measure.FIFO[this->measure.count_nu
 471              		.loc 1 134 53 view .LVU106
 472 0006 1A1D     		adds	r2, r3, #4	@ tmp126, _1,
 473 0008 00EB8202 		add	r2, r0, r2, lsl #2	@ tmp128, this, tmp126,
ARM GAS  C:\Users\28212\AppData\Local\Temp\ccuoOQp9.s 			page 12


 474 000c 82ED000A 		vstr.32	s0, [r2]	@ Input, this_15(D)->measure.FIFO[_1]
 135:ACE_ECF_25/Algorithm/filter_alg/filter.cpp ****         this->measure.count_num++;
 475              		.loc 1 135 9 is_stmt 1 view .LVU107
 476              	@ ACE_ECF_25/Algorithm/filter_alg/filter.cpp:135:         this->measure.count_num++;
 477              		.loc 1 135 32 is_stmt 0 view .LVU108
 478 0010 0133     		adds	r3, r3, #1	@ _2, _1,
 479 0012 4360     		str	r3, [r0, #4]	@ _2, this_15(D)->measure.count_num
 136:ACE_ECF_25/Algorithm/filter_alg/filter.cpp **** 
 137:ACE_ECF_25/Algorithm/filter_alg/filter.cpp ****         if (this->measure.count_num == num)
 480              		.loc 1 137 9 is_stmt 1 view .LVU109
 481 0014 8B42     		cmp	r3, r1	@ _2, num
 482 0016 10D0     		beq	.L31		@,
 483              	.L28:
 138:ACE_ECF_25/Algorithm/filter_alg/filter.cpp ****         {
 139:ACE_ECF_25/Algorithm/filter_alg/filter.cpp ****             this->measure.count_num = 0;
 140:ACE_ECF_25/Algorithm/filter_alg/filter.cpp ****             this->measure.sum_flag = 1;
 141:ACE_ECF_25/Algorithm/filter_alg/filter.cpp ****         }
 142:ACE_ECF_25/Algorithm/filter_alg/filter.cpp ****         // 求和
 143:ACE_ECF_25/Algorithm/filter_alg/filter.cpp ****         if (this->measure.sum_flag == 1)
 484              		.loc 1 143 9 view .LVU110
 485              	.LBB7:
 486              	@ ACE_ECF_25/Algorithm/filter_alg/filter.cpp:143:         if (this->measure.sum_flag == 1)
 487              		.loc 1 143 27 is_stmt 0 view .LVU111
 488 0018 D0F8F833 		ldr	r3, [r0, #1016]	@ _3, this_15(D)->measure.sum_flag
 489              	@ ACE_ECF_25/Algorithm/filter_alg/filter.cpp:143:         if (this->measure.sum_flag == 1)
 490              		.loc 1 143 9 view .LVU112
 491 001c 012B     		cmp	r3, #1	@ _3,
 492 001e 12D0     		beq	.L32		@,
 493              	.L29:
 494              	.LBE7:
 144:ACE_ECF_25/Algorithm/filter_alg/filter.cpp ****         {
 145:ACE_ECF_25/Algorithm/filter_alg/filter.cpp ****             for (int count = 0; count < num; count++)
 146:ACE_ECF_25/Algorithm/filter_alg/filter.cpp ****             {
 147:ACE_ECF_25/Algorithm/filter_alg/filter.cpp ****                 this->measure.Sum += this->measure.FIFO[count];
 148:ACE_ECF_25/Algorithm/filter_alg/filter.cpp ****             }
 149:ACE_ECF_25/Algorithm/filter_alg/filter.cpp ****         }
 150:ACE_ECF_25/Algorithm/filter_alg/filter.cpp ****         // 均值
 151:ACE_ECF_25/Algorithm/filter_alg/filter.cpp ****         this->measure.Output = this->measure.Sum / num;
 495              		.loc 1 151 9 is_stmt 1 view .LVU113
 496              	@ ACE_ECF_25/Algorithm/filter_alg/filter.cpp:151:         this->measure.Output = this->measure.Sum 
 497              		.loc 1 151 46 is_stmt 0 view .LVU114
 498 0020 90ED037A 		vldr.32	s14, [r0, #12]	@ _7, this_15(D)->measure.Sum
 499              	@ ACE_ECF_25/Algorithm/filter_alg/filter.cpp:151:         this->measure.Output = this->measure.Sum 
 500              		.loc 1 151 50 view .LVU115
 501 0024 07EE901A 		vmov	s15, r1	@ int	@ num, num
 502 0028 F8EEE77A 		vcvt.f32.s32	s15, s15	@ tmp136, num
 503 002c 87EE270A 		vdiv.f32	s0, s14, s15	@ <retval>, _7, tmp136
 504              	.LVL16:
 505              	@ ACE_ECF_25/Algorithm/filter_alg/filter.cpp:151:         this->measure.Output = this->measure.Sum 
 506              		.loc 1 151 30 view .LVU116
 507 0030 80ED020A 		vstr.32	s0, [r0, #8]	@ <retval>, this_15(D)->measure.Output
 152:ACE_ECF_25/Algorithm/filter_alg/filter.cpp ****         this->measure.Sum = 0;
 508              		.loc 1 152 9 is_stmt 1 view .LVU117
 509              	@ ACE_ECF_25/Algorithm/filter_alg/filter.cpp:152:         this->measure.Sum = 0;
 510              		.loc 1 152 27 is_stmt 0 view .LVU118
 511 0034 0023     		movs	r3, #0	@ tmp137,
 512 0036 C360     		str	r3, [r0, #12]	@ float	@ tmp137, this_15(D)->measure.Sum
ARM GAS  C:\Users\28212\AppData\Local\Temp\ccuoOQp9.s 			page 13


 153:ACE_ECF_25/Algorithm/filter_alg/filter.cpp **** 
 154:ACE_ECF_25/Algorithm/filter_alg/filter.cpp ****         return this->measure.Output;
 513              		.loc 1 154 9 is_stmt 1 view .LVU119
 514              	@ ACE_ECF_25/Algorithm/filter_alg/filter.cpp:155:     }
 155:ACE_ECF_25/Algorithm/filter_alg/filter.cpp ****     }
 515              		.loc 1 155 5 is_stmt 0 view .LVU120
 516 0038 7047     		bx	lr	@
 517              	.LVL17:
 518              	.L31:
 139:ACE_ECF_25/Algorithm/filter_alg/filter.cpp ****             this->measure.sum_flag = 1;
 519              		.loc 1 139 13 is_stmt 1 view .LVU121
 520              	@ ACE_ECF_25/Algorithm/filter_alg/filter.cpp:139:             this->measure.count_num = 0;
 139:ACE_ECF_25/Algorithm/filter_alg/filter.cpp ****             this->measure.sum_flag = 1;
 521              		.loc 1 139 37 is_stmt 0 view .LVU122
 522 003a 0023     		movs	r3, #0	@ tmp129,
 523 003c 4360     		str	r3, [r0, #4]	@ tmp129, this_15(D)->measure.count_num
 140:ACE_ECF_25/Algorithm/filter_alg/filter.cpp ****         }
 524              		.loc 1 140 13 is_stmt 1 view .LVU123
 525              	@ ACE_ECF_25/Algorithm/filter_alg/filter.cpp:140:             this->measure.sum_flag = 1;
 140:ACE_ECF_25/Algorithm/filter_alg/filter.cpp ****         }
 526              		.loc 1 140 36 is_stmt 0 view .LVU124
 527 003e 0123     		movs	r3, #1	@ tmp130,
 528 0040 C0F8F833 		str	r3, [r0, #1016]	@ tmp130, this_15(D)->measure.sum_flag
 529 0044 E8E7     		b	.L28		@
 530              	.L32:
 531              	.LBB9:
 532              	.LBB8:
 533              	@ ACE_ECF_25/Algorithm/filter_alg/filter.cpp:145:             for (int count = 0; count < num; coun
 145:ACE_ECF_25/Algorithm/filter_alg/filter.cpp ****             {
 534              		.loc 1 145 22 view .LVU125
 535 0046 0023     		movs	r3, #0	@ count,
 536 0048 0BE0     		b	.L30		@
 537              	.LVL18:
 538              	.L33:
 147:ACE_ECF_25/Algorithm/filter_alg/filter.cpp ****             }
 539              		.loc 1 147 17 is_stmt 1 discriminator 2 view .LVU126
 540              	@ ACE_ECF_25/Algorithm/filter_alg/filter.cpp:147:                 this->measure.Sum += this->measur
 147:ACE_ECF_25/Algorithm/filter_alg/filter.cpp ****             }
 541              		.loc 1 147 62 is_stmt 0 discriminator 2 view .LVU127
 542 004a 1A1D     		adds	r2, r3, #4	@ tmp131, count,
 543 004c 00EB8202 		add	r2, r0, r2, lsl #2	@ tmp133, this, tmp131,
 544 0050 92ED007A 		vldr.32	s14, [r2]	@ _5, this_15(D)->measure.FIFO[count_10]
 545              	@ ACE_ECF_25/Algorithm/filter_alg/filter.cpp:147:                 this->measure.Sum += this->measur
 147:ACE_ECF_25/Algorithm/filter_alg/filter.cpp ****             }
 546              		.loc 1 147 35 discriminator 2 view .LVU128
 547 0054 D0ED037A 		vldr.32	s15, [r0, #12]	@ this_15(D)->measure.Sum, this_15(D)->measure.Sum
 548 0058 77EE877A 		vadd.f32	s15, s15, s14	@ tmp134, this_15(D)->measure.Sum, _5
 549 005c C0ED037A 		vstr.32	s15, [r0, #12]	@ tmp134, this_15(D)->measure.Sum
 145:ACE_ECF_25/Algorithm/filter_alg/filter.cpp ****             {
 550              		.loc 1 145 13 is_stmt 1 discriminator 2 view .LVU129
 551 0060 0133     		adds	r3, r3, #1	@ count, count,
 552              	.LVL19:
 553              	.L30:
 145:ACE_ECF_25/Algorithm/filter_alg/filter.cpp ****             {
 554              		.loc 1 145 39 discriminator 3 view .LVU130
 555 0062 8B42     		cmp	r3, r1	@ count, num
 556 0064 F1DB     		blt	.L33		@,
ARM GAS  C:\Users\28212\AppData\Local\Temp\ccuoOQp9.s 			page 14


 557 0066 DBE7     		b	.L29		@
 558              	.LBE8:
 559              	.LBE9:
 560              		.cfi_endproc
 561              	.LFE10:
 562              		.size	_ZN9Algorithm21sliding_mean_filter_c19sliding_mean_filterEfi, .-_ZN9Algorithm21sliding_mean_
 563              		.text
 564              	.Letext0:
 565              		.file 2 "d:\\gcc-arm-none-eabi-10.3-2021.10\\arm-none-eabi\\include\\c++\\10.3.1\\cstdint"
 566              		.file 3 "d:\\gcc-arm-none-eabi-10.3-2021.10\\arm-none-eabi\\include\\c++\\10.3.1\\arm-none-eabi\\t
 567              		.file 4 "d:\\gcc-arm-none-eabi-10.3-2021.10\\arm-none-eabi\\include\\machine\\_default_types.h"
 568              		.file 5 "d:\\gcc-arm-none-eabi-10.3-2021.10\\arm-none-eabi\\include\\sys\\_stdint.h"
 569              		.file 6 "d:\\gcc-arm-none-eabi-10.3-2021.10\\arm-none-eabi\\include\\stdint.h"
 570              		.file 7 "ACE_ECF_25/Algorithm/filter_alg/filter.hpp"
 571              		.file 8 "<built-in>"