ARM GAS  C:\Users\28212\AppData\Local\Temp\ccVld2hN.s 			page 1


   1              		.cpu cortex-m7
   2              		.arch armv7e-m
   3              		.fpu fpv5-d16
   4              		.eabi_attribute 28, 1
   5              		.eabi_attribute 20, 1
   6              		.eabi_attribute 21, 1
   7              		.eabi_attribute 23, 3
   8              		.eabi_attribute 24, 1
   9              		.eabi_attribute 25, 1
  10              		.eabi_attribute 26, 1
  11              		.eabi_attribute 30, 1
  12              		.eabi_attribute 34, 1
  13              		.eabi_attribute 18, 4
  14              		.file	"freertos.c"
  15              		.section	.rodata.str1.4,"aMS",%progbits,1
  16              		.align	2
  17              	.LC0:
  18 0000 5F494E49 		.ascii	"_INIT_TASK_\000"
  18      545F5441 
  18      534B5F00 
  19              		.text
  20              	.Ltext0:
  21              		.cfi_sections	.debug_frame
  22              		.section	.text.StartDefaultTask,"ax",%progbits
  23              		.align	1
  24              		.global	StartDefaultTask
  25              		.syntax unified
  26              		.thumb
  27              		.thumb_func
  29              	StartDefaultTask:
  30              	.LFB151:
  31              		.file 1 "Core/Src/freertos.c"
   1:Core/Src/freertos.c **** /* USER CODE BEGIN Header */
   2:Core/Src/freertos.c **** /**
   3:Core/Src/freertos.c ****   ******************************************************************************
   4:Core/Src/freertos.c ****   * File Name          : freertos.c
   5:Core/Src/freertos.c ****   * Description        : Code for freertos applications
   6:Core/Src/freertos.c ****   ******************************************************************************
   7:Core/Src/freertos.c ****   * @attention
   8:Core/Src/freertos.c ****   *
   9:Core/Src/freertos.c ****   * Copyright (c) 2024 STMicroelectronics.
  10:Core/Src/freertos.c ****   * All rights reserved.
  11:Core/Src/freertos.c ****   *
  12:Core/Src/freertos.c ****   * This software is licensed under terms that can be found in the LICENSE file
  13:Core/Src/freertos.c ****   * in the root directory of this software component.
  14:Core/Src/freertos.c ****   * If no LICENSE file comes with this software, it is provided AS-IS.
  15:Core/Src/freertos.c ****   *
  16:Core/Src/freertos.c ****   ******************************************************************************
  17:Core/Src/freertos.c ****   */
  18:Core/Src/freertos.c **** /* USER CODE END Header */
  19:Core/Src/freertos.c **** 
  20:Core/Src/freertos.c **** /* Includes ------------------------------------------------------------------*/
  21:Core/Src/freertos.c **** #include "FreeRTOS.h"
  22:Core/Src/freertos.c **** #include "task.h"
  23:Core/Src/freertos.c **** #include "main.h"
  24:Core/Src/freertos.c **** #include "cmsis_os.h"
  25:Core/Src/freertos.c **** 
ARM GAS  C:\Users\28212\AppData\Local\Temp\ccVld2hN.s 			page 2


  26:Core/Src/freertos.c **** /* Private includes ----------------------------------------------------------*/
  27:Core/Src/freertos.c **** /* USER CODE BEGIN Includes */
  28:Core/Src/freertos.c **** 
  29:Core/Src/freertos.c **** /* USER CODE END Includes */
  30:Core/Src/freertos.c **** 
  31:Core/Src/freertos.c **** /* Private typedef -----------------------------------------------------------*/
  32:Core/Src/freertos.c **** /* USER CODE BEGIN PTD */
  33:Core/Src/freertos.c **** 
  34:Core/Src/freertos.c **** /* USER CODE END PTD */
  35:Core/Src/freertos.c **** 
  36:Core/Src/freertos.c **** /* Private define ------------------------------------------------------------*/
  37:Core/Src/freertos.c **** /* USER CODE BEGIN PD */
  38:Core/Src/freertos.c **** 
  39:Core/Src/freertos.c **** /* USER CODE END PD */
  40:Core/Src/freertos.c **** 
  41:Core/Src/freertos.c **** /* Private macro -------------------------------------------------------------*/
  42:Core/Src/freertos.c **** /* USER CODE BEGIN PM */
  43:Core/Src/freertos.c **** 
  44:Core/Src/freertos.c **** /* USER CODE END PM */
  45:Core/Src/freertos.c **** 
  46:Core/Src/freertos.c **** /* Private variables ---------------------------------------------------------*/
  47:Core/Src/freertos.c **** /* USER CODE BEGIN Variables */
  48:Core/Src/freertos.c **** 
  49:Core/Src/freertos.c **** /* USER CODE END Variables */
  50:Core/Src/freertos.c **** osThreadId _INIT_TASK_Handle;
  51:Core/Src/freertos.c **** 
  52:Core/Src/freertos.c **** /* Private function prototypes -----------------------------------------------*/
  53:Core/Src/freertos.c **** /* USER CODE BEGIN FunctionPrototypes */
  54:Core/Src/freertos.c **** 
  55:Core/Src/freertos.c **** /* USER CODE END FunctionPrototypes */
  56:Core/Src/freertos.c **** 
  57:Core/Src/freertos.c **** void StartDefaultTask(void const * argument);
  58:Core/Src/freertos.c **** 
  59:Core/Src/freertos.c **** void MX_FREERTOS_Init(void); /* (MISRA C 2004 rule 8.1) */
  60:Core/Src/freertos.c **** 
  61:Core/Src/freertos.c **** /* GetIdleTaskMemory prototype (linked to static allocation support) */
  62:Core/Src/freertos.c **** void vApplicationGetIdleTaskMemory( StaticTask_t **ppxIdleTaskTCBBuffer, StackType_t **ppxIdleTaskS
  63:Core/Src/freertos.c **** 
  64:Core/Src/freertos.c **** /* USER CODE BEGIN GET_IDLE_TASK_MEMORY */
  65:Core/Src/freertos.c **** static StaticTask_t xIdleTaskTCBBuffer;
  66:Core/Src/freertos.c **** static StackType_t xIdleStack[configMINIMAL_STACK_SIZE];
  67:Core/Src/freertos.c **** 
  68:Core/Src/freertos.c **** void vApplicationGetIdleTaskMemory( StaticTask_t **ppxIdleTaskTCBBuffer, StackType_t **ppxIdleTaskS
  69:Core/Src/freertos.c **** {
  70:Core/Src/freertos.c ****   *ppxIdleTaskTCBBuffer = &xIdleTaskTCBBuffer;
  71:Core/Src/freertos.c ****   *ppxIdleTaskStackBuffer = &xIdleStack[0];
  72:Core/Src/freertos.c ****   *pulIdleTaskStackSize = configMINIMAL_STACK_SIZE;
  73:Core/Src/freertos.c ****   /* place for user code */
  74:Core/Src/freertos.c **** }
  75:Core/Src/freertos.c **** /* USER CODE END GET_IDLE_TASK_MEMORY */
  76:Core/Src/freertos.c **** 
  77:Core/Src/freertos.c **** /**
  78:Core/Src/freertos.c ****   * @brief  FreeRTOS initialization
  79:Core/Src/freertos.c ****   * @param  None
  80:Core/Src/freertos.c ****   * @retval None
  81:Core/Src/freertos.c ****   */
  82:Core/Src/freertos.c **** void MX_FREERTOS_Init(void) {
ARM GAS  C:\Users\28212\AppData\Local\Temp\ccVld2hN.s 			page 3


  83:Core/Src/freertos.c ****   /* USER CODE BEGIN Init */
  84:Core/Src/freertos.c **** 
  85:Core/Src/freertos.c ****   /* USER CODE END Init */
  86:Core/Src/freertos.c **** 
  87:Core/Src/freertos.c ****   /* USER CODE BEGIN RTOS_MUTEX */
  88:Core/Src/freertos.c ****   /* add mutexes, ... */
  89:Core/Src/freertos.c ****   /* USER CODE END RTOS_MUTEX */
  90:Core/Src/freertos.c **** 
  91:Core/Src/freertos.c ****   /* USER CODE BEGIN RTOS_SEMAPHORES */
  92:Core/Src/freertos.c ****   /* add semaphores, ... */
  93:Core/Src/freertos.c ****   /* USER CODE END RTOS_SEMAPHORES */
  94:Core/Src/freertos.c **** 
  95:Core/Src/freertos.c ****   /* USER CODE BEGIN RTOS_TIMERS */
  96:Core/Src/freertos.c ****   /* start timers, add new ones, ... */
  97:Core/Src/freertos.c ****   /* USER CODE END RTOS_TIMERS */
  98:Core/Src/freertos.c **** 
  99:Core/Src/freertos.c ****   /* USER CODE BEGIN RTOS_QUEUES */
 100:Core/Src/freertos.c ****   /* add queues, ... */
 101:Core/Src/freertos.c ****   /* USER CODE END RTOS_QUEUES */
 102:Core/Src/freertos.c **** 
 103:Core/Src/freertos.c ****   /* Create the thread(s) */
 104:Core/Src/freertos.c ****   /* definition and creation of _INIT_TASK_ */
 105:Core/Src/freertos.c ****   osThreadDef(_INIT_TASK_, StartDefaultTask, osPriorityNormal, 0, 1024);
 106:Core/Src/freertos.c ****   _INIT_TASK_Handle = osThreadCreate(osThread(_INIT_TASK_), NULL);
 107:Core/Src/freertos.c **** 
 108:Core/Src/freertos.c ****   /* USER CODE BEGIN RTOS_THREADS */
 109:Core/Src/freertos.c ****   /* add threads, ... */
 110:Core/Src/freertos.c ****   /* USER CODE END RTOS_THREADS */
 111:Core/Src/freertos.c **** 
 112:Core/Src/freertos.c **** }
 113:Core/Src/freertos.c **** 
 114:Core/Src/freertos.c **** /* USER CODE BEGIN Header_StartDefaultTask */
 115:Core/Src/freertos.c **** /**
 116:Core/Src/freertos.c ****   * @brief  Function implementing the _INIT_TASK_ thread.
 117:Core/Src/freertos.c ****   * @param  argument: Not used
 118:Core/Src/freertos.c ****   * @retval None
 119:Core/Src/freertos.c ****   */
 120:Core/Src/freertos.c **** /* USER CODE END Header_StartDefaultTask */
 121:Core/Src/freertos.c **** void StartDefaultTask(void const * argument)
 122:Core/Src/freertos.c **** {
  32              		.loc 1 122 1 view -0
  33              		.cfi_startproc
  34              		@ Volatile: function does not return.
  35              		@ args = 0, pretend = 0, frame = 0
  36              		@ frame_needed = 0, uses_anonymous_args = 0
  37              	.LVL0:
  38              		.loc 1 122 1 is_stmt 0 view .LVU1
  39 0000 08B5     		push	{r3, lr}
  40              	.LCFI0:
  41              		.cfi_def_cfa_offset 8
  42              		.cfi_offset 3, -8
  43              		.cfi_offset 14, -4
  44              	.LVL1:
  45              	.L2:
 123:Core/Src/freertos.c ****   /* USER CODE BEGIN StartDefaultTask */
 124:Core/Src/freertos.c ****   /* Infinite loop */
 125:Core/Src/freertos.c ****   for(;;)
ARM GAS  C:\Users\28212\AppData\Local\Temp\ccVld2hN.s 			page 4


  46              		.loc 1 125 3 is_stmt 1 discriminator 1 view .LVU2
 126:Core/Src/freertos.c ****   {
 127:Core/Src/freertos.c ****     osDelay(1);
  47              		.loc 1 127 5 discriminator 1 view .LVU3
  48 0002 0120     		movs	r0, #1
  49 0004 FFF7FEFF 		bl	osDelay
  50              	.LVL2:
 125:Core/Src/freertos.c ****   {
  51              		.loc 1 125 8 discriminator 1 view .LVU4
  52 0008 FBE7     		b	.L2
  53              		.cfi_endproc
  54              	.LFE151:
  56              		.section	.text.vApplicationGetIdleTaskMemory,"ax",%progbits
  57              		.align	1
  58              		.global	vApplicationGetIdleTaskMemory
  59              		.syntax unified
  60              		.thumb
  61              		.thumb_func
  63              	vApplicationGetIdleTaskMemory:
  64              	.LVL3:
  65              	.LFB149:
  69:Core/Src/freertos.c ****   *ppxIdleTaskTCBBuffer = &xIdleTaskTCBBuffer;
  66              		.loc 1 69 1 view -0
  67              		.cfi_startproc
  68              		@ args = 0, pretend = 0, frame = 0
  69              		@ frame_needed = 0, uses_anonymous_args = 0
  70              		@ link register save eliminated.
  70:Core/Src/freertos.c ****   *ppxIdleTaskStackBuffer = &xIdleStack[0];
  71              		.loc 1 70 3 view .LVU6
  70:Core/Src/freertos.c ****   *ppxIdleTaskStackBuffer = &xIdleStack[0];
  72              		.loc 1 70 25 is_stmt 0 view .LVU7
  73 0000 034B     		ldr	r3, .L5
  74 0002 0360     		str	r3, [r0]
  71:Core/Src/freertos.c ****   *pulIdleTaskStackSize = configMINIMAL_STACK_SIZE;
  75              		.loc 1 71 3 is_stmt 1 view .LVU8
  71:Core/Src/freertos.c ****   *pulIdleTaskStackSize = configMINIMAL_STACK_SIZE;
  76              		.loc 1 71 27 is_stmt 0 view .LVU9
  77 0004 034B     		ldr	r3, .L5+4
  78 0006 0B60     		str	r3, [r1]
  72:Core/Src/freertos.c ****   /* place for user code */
  79              		.loc 1 72 3 is_stmt 1 view .LVU10
  72:Core/Src/freertos.c ****   /* place for user code */
  80              		.loc 1 72 25 is_stmt 0 view .LVU11
  81 0008 4FF48063 		mov	r3, #1024
  82 000c 1360     		str	r3, [r2]
  74:Core/Src/freertos.c **** /* USER CODE END GET_IDLE_TASK_MEMORY */
  83              		.loc 1 74 1 view .LVU12
  84 000e 7047     		bx	lr
  85              	.L6:
  86              		.align	2
  87              	.L5:
  88 0010 00000000 		.word	.LANCHOR0
  89 0014 00000000 		.word	xIdleStack
  90              		.cfi_endproc
  91              	.LFE149:
  93              		.section	.text.MX_FREERTOS_Init,"ax",%progbits
  94              		.align	1
ARM GAS  C:\Users\28212\AppData\Local\Temp\ccVld2hN.s 			page 5


  95              		.global	MX_FREERTOS_Init
  96              		.syntax unified
  97              		.thumb
  98              		.thumb_func
 100              	MX_FREERTOS_Init:
 101              	.LFB150:
  82:Core/Src/freertos.c ****   /* USER CODE BEGIN Init */
 102              		.loc 1 82 29 is_stmt 1 view -0
 103              		.cfi_startproc
 104              		@ args = 0, pretend = 0, frame = 32
 105              		@ frame_needed = 0, uses_anonymous_args = 0
 106 0000 10B5     		push	{r4, lr}
 107              	.LCFI1:
 108              		.cfi_def_cfa_offset 8
 109              		.cfi_offset 4, -8
 110              		.cfi_offset 14, -4
 111 0002 88B0     		sub	sp, sp, #32
 112              	.LCFI2:
 113              		.cfi_def_cfa_offset 40
 105:Core/Src/freertos.c ****   _INIT_TASK_Handle = osThreadCreate(osThread(_INIT_TASK_), NULL);
 114              		.loc 1 105 3 view .LVU14
 115 0004 0DF1040C 		add	ip, sp, #4
 116 0008 074C     		ldr	r4, .L9
 117 000a 0FCC     		ldmia	r4!, {r0, r1, r2, r3}
 118 000c ACE80F00 		stmia	ip!, {r0, r1, r2, r3}
 119 0010 94E80700 		ldm	r4, {r0, r1, r2}
 120 0014 8CE80700 		stm	ip, {r0, r1, r2}
 106:Core/Src/freertos.c **** 
 121              		.loc 1 106 3 view .LVU15
 106:Core/Src/freertos.c **** 
 122              		.loc 1 106 23 is_stmt 0 view .LVU16
 123 0018 0021     		movs	r1, #0
 124 001a 01A8     		add	r0, sp, #4
 125 001c FFF7FEFF 		bl	osThreadCreate
 126              	.LVL4:
 106:Core/Src/freertos.c **** 
 127              		.loc 1 106 21 view .LVU17
 128 0020 024B     		ldr	r3, .L9+4
 129 0022 1860     		str	r0, [r3]
 112:Core/Src/freertos.c **** 
 130              		.loc 1 112 1 view .LVU18
 131 0024 08B0     		add	sp, sp, #32
 132              	.LCFI3:
 133              		.cfi_def_cfa_offset 8
 134              		@ sp needed
 135 0026 10BD     		pop	{r4, pc}
 136              	.L10:
 137              		.align	2
 138              	.L9:
 139 0028 00000000 		.word	.LANCHOR1
 140 002c 00000000 		.word	.LANCHOR2
 141              		.cfi_endproc
 142              	.LFE150:
 144              		.global	_INIT_TASK_Handle
 145              		.section	.rodata
 146              		.align	2
 147              		.set	.LANCHOR1,. + 0
ARM GAS  C:\Users\28212\AppData\Local\Temp\ccVld2hN.s 			page 6


 148              	.LC2:
 149 0000 00000000 		.word	.LC0
 150 0004 00000000 		.word	StartDefaultTask
 151 0008 0000     		.short	0
 152 000a 0000     		.space	2
 153 000c 00000000 		.word	0
 154 0010 00040000 		.word	1024
 155 0014 00000000 		.word	0
 156 0018 00000000 		.word	0
 157              		.section	.bss._INIT_TASK_Handle,"aw",%nobits
 158              		.align	2
 159              		.set	.LANCHOR2,. + 0
 162              	_INIT_TASK_Handle:
 163 0000 00000000 		.space	4
 164              		.section	.bss.xIdleStack,"aw",%nobits
 165              		.align	2
 168              	xIdleStack:
 169 0000 00000000 		.space	4096
 169      00000000 
 169      00000000 
 169      00000000 
 169      00000000 
 170              		.section	.bss.xIdleTaskTCBBuffer,"aw",%nobits
 171              		.align	2
 172              		.set	.LANCHOR0,. + 0
 175              	xIdleTaskTCBBuffer:
 176 0000 00000000 		.space	108
 176      00000000 
 176      00000000 
 176      00000000 
 176      00000000 
 177              		.text
 178              	.Letext0:
 179              		.file 2 "d:\\gcc-arm-none-eabi-10.3-2021.10\\arm-none-eabi\\include\\machine\\_default_types.h"
 180              		.file 3 "d:\\gcc-arm-none-eabi-10.3-2021.10\\arm-none-eabi\\include\\sys\\_stdint.h"
 181              		.file 4 "Middlewares/Third_Party/FreeRTOS/Source/portable/GCC/ARM_CM4F/portmacro.h"
 182              		.file 5 "Middlewares/Third_Party/FreeRTOS/Source/include/FreeRTOS.h"
 183              		.file 6 "Middlewares/Third_Party/FreeRTOS/Source/include/task.h"
 184              		.file 7 "Middlewares/Third_Party/FreeRTOS/Source/CMSIS_RTOS/cmsis_os.h"
ARM GAS  C:\Users\28212\AppData\Local\Temp\ccVld2hN.s 			page 7

