ARM GAS  C:\Users\28212\AppData\Local\Temp\cc7dq27q.s 			page 1


   1              		.cpu cortex-m7
   2              		.arch armv7e-m
   3              		.fpu fpv5-d16
   4              		.eabi_attribute 28, 1	@ Tag_ABI_VFP_args
   5              		.eabi_attribute 20, 1	@ Tag_ABI_FP_denormal
   6              		.eabi_attribute 21, 1	@ Tag_ABI_FP_exceptions
   7              		.eabi_attribute 23, 3	@ Tag_ABI_FP_number_model
   8              		.eabi_attribute 24, 1	@ Tag_ABI_align8_needed
   9              		.eabi_attribute 25, 1	@ Tag_ABI_align8_preserved
  10              		.eabi_attribute 26, 1	@ Tag_ABI_enum_size
  11              		.eabi_attribute 30, 1	@ Tag_ABI_optimization_goals
  12              		.eabi_attribute 34, 1	@ Tag_CPU_unaligned_access
  13              		.eabi_attribute 18, 4	@ Tag_ABI_PCS_wchar_t
  14              		.file	"user_maths.cpp"
  15              	@ GNU C++14 (GNU Arm Embedded Toolchain 10.3-2021.10) version 10.3.1 20210824 (release) (arm-none-e
  16              	@	compiled by GNU C version 7.3-win32 20180312, GMP version 6.1.0, MPFR version 3.1.4, MPC version 
  17              	
  18              	@ GGC heuristics: --param ggc-min-expand=100 --param ggc-min-heapsize=131072
  19              	@ options passed:  -I Core/Inc -I Drivers/STM32H7xx_HAL_Driver/Inc
  20              	@ -I Drivers/STM32H7xx_HAL_Driver/Inc/Legacy
  21              	@ -I Middlewares/Third_Party/FreeRTOS/Source/include
  22              	@ -I Middlewares/Third_Party/FreeRTOS/Source/CMSIS_RTOS
  23              	@ -I Middlewares/Third_Party/FreeRTOS/Source/portable/GCC/ARM_CM4F
  24              	@ -I Drivers/CMSIS/Device/ST/STM32H7xx/Include -I Drivers/CMSIS/Include
  25              	@ -I Middlewares/ST/ARM/DSP/Inc -I Core/Inc -I ACE_ECF_25
  26              	@ -I ACE_ECF_25/Algorithm/filter_alg -I ACE_ECF_25/Algorithm/PID
  27              	@ -I ACE_ECF_25/Algorithm/user_maths
  28              	@ -I ACE_ECF_25/Algorithm/user_maths/cpp_files -I ACE_ECF_25/Bsp/can
  29              	@ -I ACE_ECF_25/Bsp/dwt -I ACE_ECF_25/module -I ACE_ECF_25/module/motor
  30              	@ -I ACE_ECF_25/module/motor/DJImotor -imultilib thumb/v7e-m+dp/hard
  31              	@ -iprefix d:\gcc-arm-none-eabi-10.3-2021.10\bin\../lib/gcc/arm-none-eabi/10.3.1/
  32              	@ -isysroot d:\gcc-arm-none-eabi-10.3-2021.10\bin\../arm-none-eabi
  33              	@ -MMD build/user_maths.d -MF build/user_maths.d -MP -MQ build/user_maths.o
  34              	@ -D__USES_INITFINI__ -D USE_HAL_DRIVER -D STM32H723xx
  35              	@ ACE_ECF_25/Algorithm/user_maths/cpp_files/user_maths.cpp -mcpu=cortex-m7
  36              	@ -mthumb -mfpu=fpv5-d16 -mfloat-abi=hard -mlibarch=armv7e-m+fp.dp
  37              	@ -march=armv7e-m+fp.dp -auxbase-strip build/user_maths.o -g -gdwarf-2 -g
  38              	@ -ggdb3 -Og -Wall -fno-rtti -fno-exceptions -fverbose-asm -fdata-sections
  39              	@ -ffunction-sections -fpermissive
  40              	@ options enabled:  -faggressive-loop-optimizations -fallocation-dce
  41              	@ -fauto-inc-dec -fcombine-stack-adjustments -fcompare-elim
  42              	@ -fcprop-registers -fdata-sections -fdefer-pop
  43              	@ -fdelete-null-pointer-checks -fdwarf2-cfi-asm -fearly-inlining
  44              	@ -feliminate-unused-debug-symbols -feliminate-unused-debug-types
  45              	@ -fforward-propagate -ffp-int-builtin-inexact -ffunction-cse
  46              	@ -ffunction-sections -fgcse-lm -fgnu-unique -fguess-branch-probability
  47              	@ -fident -finline -finline-atomics -fipa-profile -fipa-pure-const
  48              	@ -fipa-reference -fipa-reference-addressable -fipa-stack-alignment
  49              	@ -fira-hoist-pressure -fira-share-save-slots -fira-share-spill-slots
  50              	@ -fivopts -fkeep-static-consts -fleading-underscore -flifetime-dse
  51              	@ -fmath-errno -fmerge-constants -fmerge-debug-strings -fomit-frame-pointer
  52              	@ -fpeephole -fplt -fprefetch-loop-arrays -freg-struct-return
  53              	@ -freorder-blocks -fsched-critical-path-heuristic
  54              	@ -fsched-dep-count-heuristic -fsched-group-heuristic -fsched-interblock
  55              	@ -fsched-last-insn-heuristic -fsched-pressure -fsched-rank-heuristic
  56              	@ -fsched-spec -fsched-spec-insn-heuristic -fsched-stalled-insns-dep
  57              	@ -fsection-anchors -fsemantic-interposition -fshow-column -fshrink-wrap
ARM GAS  C:\Users\28212\AppData\Local\Temp\cc7dq27q.s 			page 2


  58              	@ -fshrink-wrap-separate -fsigned-zeros -fsplit-ivs-in-unroller
  59              	@ -fsplit-wide-types -fssa-backprop -fstdarg-opt
  60              	@ -fstrict-volatile-bitfields -fsync-libcalls -ftoplevel-reorder
  61              	@ -ftrapping-math -ftree-builtin-call-dce -ftree-ccp -ftree-ch
  62              	@ -ftree-coalesce-vars -ftree-copy-prop -ftree-cselim -ftree-dce
  63              	@ -ftree-dominator-opts -ftree-forwprop -ftree-fre -ftree-loop-if-convert
  64              	@ -ftree-loop-im -ftree-loop-ivcanon -ftree-loop-optimize
  65              	@ -ftree-parallelize-loops= -ftree-phiprop -ftree-reassoc -ftree-scev-cprop
  66              	@ -ftree-sink -ftree-slsr -ftree-ter -funit-at-a-time -fvar-tracking
  67              	@ -fvar-tracking-assignments -fverbose-asm -fzero-initialized-in-bss
  68              	@ -masm-syntax-unified -mbe32 -mlittle-endian -mpic-data-is-text-relative
  69              	@ -msched-prolog -mthumb -munaligned-access -mvectorize-with-neon-quad
  70              	
  71              		.text
  72              	.Ltext0:
  73              		.cfi_sections	.debug_frame
  74              		.section	.text._ZN8UserMath7invSqrtEf,"ax",%progbits
  75              		.align	1
  76              		.global	_ZN8UserMath7invSqrtEf
  77              		.syntax unified
  78              		.thumb
  79              		.thumb_func
  80              		.type	_ZN8UserMath7invSqrtEf, %function
  81              	_ZN8UserMath7invSqrtEf:
  82              	.LVL0:
  83              	.LFB376:
  84              		.file 1 "ACE_ECF_25/Algorithm/user_maths/cpp_files/user_maths.cpp"
   1:ACE_ECF_25/Algorithm/user_maths/cpp_files/user_maths.cpp **** #include "user_maths.hpp"
   2:ACE_ECF_25/Algorithm/user_maths/cpp_files/user_maths.cpp **** #include "arm_math.h"
   3:ACE_ECF_25/Algorithm/user_maths/cpp_files/user_maths.cpp **** #include "list_of_trigfunction.h"
   4:ACE_ECF_25/Algorithm/user_maths/cpp_files/user_maths.cpp **** 
   5:ACE_ECF_25/Algorithm/user_maths/cpp_files/user_maths.cpp **** namespace UserMath
   6:ACE_ECF_25/Algorithm/user_maths/cpp_files/user_maths.cpp **** {
   7:ACE_ECF_25/Algorithm/user_maths/cpp_files/user_maths.cpp ****     float invSqrt(float x)//平方根倒数速算法
   8:ACE_ECF_25/Algorithm/user_maths/cpp_files/user_maths.cpp ****     {
  85              		.loc 1 8 5 view -0
  86              		.cfi_startproc
  87              		@ args = 0, pretend = 0, frame = 0
  88              		@ frame_needed = 0, uses_anonymous_args = 0
  89              		@ link register save eliminated.
   9:ACE_ECF_25/Algorithm/user_maths/cpp_files/user_maths.cpp ****         float halfx = 0.5f * x;
  90              		.loc 1 9 9 view .LVU1
  91              	@ ACE_ECF_25/Algorithm/user_maths/cpp_files/user_maths.cpp:9:         float halfx = 0.5f * x;
  92              		.loc 1 9 15 is_stmt 0 view .LVU2
  93 0000 F6EE007A 		vmov.f32	s15, #5.0e-1	@ tmp123,
  94 0004 60EE277A 		vmul.f32	s15, s0, s15	@ halfx, x, tmp123
  95              	.LVL1:
  10:ACE_ECF_25/Algorithm/user_maths/cpp_files/user_maths.cpp ****         float y = x;
  96              		.loc 1 10 9 is_stmt 1 view .LVU3
  11:ACE_ECF_25/Algorithm/user_maths/cpp_files/user_maths.cpp ****         long i = *reinterpret_cast<long *>(&y);
  97              		.loc 1 11 9 view .LVU4
  98              	@ ACE_ECF_25/Algorithm/user_maths/cpp_files/user_maths.cpp:11:         long i = *reinterpret_cast<l
  99              		.loc 1 11 18 is_stmt 0 view .LVU5
 100 0008 10EE103A 		vmov	r3, s0	@ int	@ _1, x
 101              	.LVL2:
  12:ACE_ECF_25/Algorithm/user_maths/cpp_files/user_maths.cpp ****         i = 0x5f3759df - (i >> 1);
 102              		.loc 1 12 9 is_stmt 1 view .LVU6
ARM GAS  C:\Users\28212\AppData\Local\Temp\cc7dq27q.s 			page 3


  13:ACE_ECF_25/Algorithm/user_maths/cpp_files/user_maths.cpp ****         y = *reinterpret_cast<float *>(&i);
 103              		.loc 1 13 9 view .LVU7
 104              	@ ACE_ECF_25/Algorithm/user_maths/cpp_files/user_maths.cpp:13:         y = *reinterpret_cast<float 
 105              		.loc 1 13 13 is_stmt 0 view .LVU8
 106 000c 074A     		ldr	r2, .L2	@ tmp124,
 107 000e A2EB6303 		sub	r3, r2, r3, asr #1	@ tmp129, tmp124, _1,
 108              	.LVL3:
 109              		.loc 1 13 13 view .LVU9
 110 0012 07EE103A 		vmov	s14, r3	@ int	@ _4, tmp129
 111              	.LVL4:
  14:ACE_ECF_25/Algorithm/user_maths/cpp_files/user_maths.cpp ****         y = y * (1.5f - (halfx * y * y));
 112              		.loc 1 14 9 is_stmt 1 view .LVU10
 113              	@ ACE_ECF_25/Algorithm/user_maths/cpp_files/user_maths.cpp:14:         y = y * (1.5f - (halfx * y *
 114              		.loc 1 14 32 is_stmt 0 view .LVU11
 115 0016 67EE277A 		vmul.f32	s15, s14, s15	@ _5, _4, halfx
 116              	.LVL5:
 117              	@ ACE_ECF_25/Algorithm/user_maths/cpp_files/user_maths.cpp:14:         y = y * (1.5f - (halfx * y *
 118              		.loc 1 14 36 view .LVU12
 119 001a 67EE277A 		vmul.f32	s15, s14, s15	@ _6, _4, _5
 120              	@ ACE_ECF_25/Algorithm/user_maths/cpp_files/user_maths.cpp:14:         y = y * (1.5f - (halfx * y *
 121              		.loc 1 14 23 view .LVU13
 122 001e B7EE080A 		vmov.f32	s0, #1.5e+0	@ tmp125,
 123              	.LVL6:
 124              		.loc 1 14 23 view .LVU14
 125 0022 30EE670A 		vsub.f32	s0, s0, s15	@ _7, tmp125, _6
 126              	.LVL7:
  15:ACE_ECF_25/Algorithm/user_maths/cpp_files/user_maths.cpp ****         return y;
 127              		.loc 1 15 9 is_stmt 1 view .LVU15
 128              	@ ACE_ECF_25/Algorithm/user_maths/cpp_files/user_maths.cpp:16:     }
  16:ACE_ECF_25/Algorithm/user_maths/cpp_files/user_maths.cpp ****     }
 129              		.loc 1 16 5 is_stmt 0 view .LVU16
 130 0026 27EE000A 		vmul.f32	s0, s14, s0	@, _4, _7
 131 002a 7047     		bx	lr	@
 132              	.L3:
 133              		.align	2
 134              	.L2:
 135 002c DF59375F 		.word	1597463007
 136              		.cfi_endproc
 137              	.LFE376:
 138              		.size	_ZN8UserMath7invSqrtEf, .-_ZN8UserMath7invSqrtEf
 139              		.section	.text._ZN8UserMath19loop_fp32_constrainEfff,"ax",%progbits
 140              		.align	1
 141              		.global	_ZN8UserMath19loop_fp32_constrainEfff
 142              		.syntax unified
 143              		.thumb
 144              		.thumb_func
 145              		.type	_ZN8UserMath19loop_fp32_constrainEfff, %function
 146              	_ZN8UserMath19loop_fp32_constrainEfff:
 147              	.LVL8:
 148              	.LFB381:
  17:ACE_ECF_25/Algorithm/user_maths/cpp_files/user_maths.cpp **** 
  18:ACE_ECF_25/Algorithm/user_maths/cpp_files/user_maths.cpp ****     /*取两个数最大值的绝对值*/
  19:ACE_ECF_25/Algorithm/user_maths/cpp_files/user_maths.cpp ****     int16_t max_abs(int16_t x, int16_t y)
  20:ACE_ECF_25/Algorithm/user_maths/cpp_files/user_maths.cpp ****     {
  21:ACE_ECF_25/Algorithm/user_maths/cpp_files/user_maths.cpp ****         return max(abs(x), abs(y));
  22:ACE_ECF_25/Algorithm/user_maths/cpp_files/user_maths.cpp ****     }
  23:ACE_ECF_25/Algorithm/user_maths/cpp_files/user_maths.cpp **** 
ARM GAS  C:\Users\28212\AppData\Local\Temp\cc7dq27q.s 			page 4


  24:ACE_ECF_25/Algorithm/user_maths/cpp_files/user_maths.cpp ****     /*
  25:ACE_ECF_25/Algorithm/user_maths/cpp_files/user_maths.cpp ****      *功能：运动控制斜坡函数（加速度限制）
  26:ACE_ECF_25/Algorithm/user_maths/cpp_files/user_maths.cpp ****      *传入：1.加速度限制对应结构体  2.控制量 3.限制加速度
  27:ACE_ECF_25/Algorithm/user_maths/cpp_files/user_maths.cpp ****      *传出：处理量
  28:ACE_ECF_25/Algorithm/user_maths/cpp_files/user_maths.cpp ****      *类型：16位整形
  29:ACE_ECF_25/Algorithm/user_maths/cpp_files/user_maths.cpp ****      */
  30:ACE_ECF_25/Algorithm/user_maths/cpp_files/user_maths.cpp ****     int16_t acceleration_control_c::motion_acceleration_control(int16_t Input, int16_t Limit)
  31:ACE_ECF_25/Algorithm/user_maths/cpp_files/user_maths.cpp ****     {
  32:ACE_ECF_25/Algorithm/user_maths/cpp_files/user_maths.cpp ****         this->acceleration_control.Input = Input;
  33:ACE_ECF_25/Algorithm/user_maths/cpp_files/user_maths.cpp ****         this->acceleration_control.acc_limit = Limit;
  34:ACE_ECF_25/Algorithm/user_maths/cpp_files/user_maths.cpp **** 
  35:ACE_ECF_25/Algorithm/user_maths/cpp_files/user_maths.cpp ****         this->acceleration_control.acc_now = this->acceleration_control.Input - this->acceleration_
  36:ACE_ECF_25/Algorithm/user_maths/cpp_files/user_maths.cpp **** 
  37:ACE_ECF_25/Algorithm/user_maths/cpp_files/user_maths.cpp ****         if (abs(this->acceleration_control.acc_now) > this->acceleration_control.acc_limit)
  38:ACE_ECF_25/Algorithm/user_maths/cpp_files/user_maths.cpp ****         {
  39:ACE_ECF_25/Algorithm/user_maths/cpp_files/user_maths.cpp ****             this->acceleration_control.Output = this->acceleration_control.Last_Input + this->accel
  40:ACE_ECF_25/Algorithm/user_maths/cpp_files/user_maths.cpp ****         }
  41:ACE_ECF_25/Algorithm/user_maths/cpp_files/user_maths.cpp **** 
  42:ACE_ECF_25/Algorithm/user_maths/cpp_files/user_maths.cpp ****         this->acceleration_control.Last_Input = this->acceleration_control.Output;
  43:ACE_ECF_25/Algorithm/user_maths/cpp_files/user_maths.cpp **** 
  44:ACE_ECF_25/Algorithm/user_maths/cpp_files/user_maths.cpp ****         return this->acceleration_control.Output;
  45:ACE_ECF_25/Algorithm/user_maths/cpp_files/user_maths.cpp ****     }
  46:ACE_ECF_25/Algorithm/user_maths/cpp_files/user_maths.cpp **** 
  47:ACE_ECF_25/Algorithm/user_maths/cpp_files/user_maths.cpp ****     /*
  48:ACE_ECF_25/Algorithm/user_maths/cpp_files/user_maths.cpp ****      *功能：正负循环限制（16位）
  49:ACE_ECF_25/Algorithm/user_maths/cpp_files/user_maths.cpp ****      *传入：1.输入值  2.限制幅度(正数)
  50:ACE_ECF_25/Algorithm/user_maths/cpp_files/user_maths.cpp ****      *传出：限幅输出值
  51:ACE_ECF_25/Algorithm/user_maths/cpp_files/user_maths.cpp ****      *描述：将输入值限制在 +-限制幅度 的范围内
  52:ACE_ECF_25/Algorithm/user_maths/cpp_files/user_maths.cpp ****      */
  53:ACE_ECF_25/Algorithm/user_maths/cpp_files/user_maths.cpp ****     int16_t loop_restriction_int16(int16_t num, int16_t limit_num)
  54:ACE_ECF_25/Algorithm/user_maths/cpp_files/user_maths.cpp ****     {
  55:ACE_ECF_25/Algorithm/user_maths/cpp_files/user_maths.cpp ****         if (abs(num) > limit_num)
  56:ACE_ECF_25/Algorithm/user_maths/cpp_files/user_maths.cpp ****         {
  57:ACE_ECF_25/Algorithm/user_maths/cpp_files/user_maths.cpp ****             if (num >= 0)
  58:ACE_ECF_25/Algorithm/user_maths/cpp_files/user_maths.cpp ****                 num -= limit_num;
  59:ACE_ECF_25/Algorithm/user_maths/cpp_files/user_maths.cpp ****             else
  60:ACE_ECF_25/Algorithm/user_maths/cpp_files/user_maths.cpp ****                 num += limit_num;
  61:ACE_ECF_25/Algorithm/user_maths/cpp_files/user_maths.cpp ****         }
  62:ACE_ECF_25/Algorithm/user_maths/cpp_files/user_maths.cpp ****         return num;
  63:ACE_ECF_25/Algorithm/user_maths/cpp_files/user_maths.cpp ****     }
  64:ACE_ECF_25/Algorithm/user_maths/cpp_files/user_maths.cpp **** 
  65:ACE_ECF_25/Algorithm/user_maths/cpp_files/user_maths.cpp ****     /*
  66:ACE_ECF_25/Algorithm/user_maths/cpp_files/user_maths.cpp ****      *功能：正负循环限制（float）
  67:ACE_ECF_25/Algorithm/user_maths/cpp_files/user_maths.cpp ****      *传入：1.输入值  2.限制幅度(正数)
  68:ACE_ECF_25/Algorithm/user_maths/cpp_files/user_maths.cpp ****      *传出：限幅输出值
  69:ACE_ECF_25/Algorithm/user_maths/cpp_files/user_maths.cpp ****      *描述：将输入值限制在 +-限制幅度 的范围内
  70:ACE_ECF_25/Algorithm/user_maths/cpp_files/user_maths.cpp ****      */
  71:ACE_ECF_25/Algorithm/user_maths/cpp_files/user_maths.cpp ****     float loop_restriction_float(float num, float limit_num)
  72:ACE_ECF_25/Algorithm/user_maths/cpp_files/user_maths.cpp ****     {
  73:ACE_ECF_25/Algorithm/user_maths/cpp_files/user_maths.cpp ****         if (abs(num) > limit_num)
  74:ACE_ECF_25/Algorithm/user_maths/cpp_files/user_maths.cpp ****         {
  75:ACE_ECF_25/Algorithm/user_maths/cpp_files/user_maths.cpp ****             if (num >= 0)
  76:ACE_ECF_25/Algorithm/user_maths/cpp_files/user_maths.cpp ****                 num -= limit_num;
  77:ACE_ECF_25/Algorithm/user_maths/cpp_files/user_maths.cpp ****             else
  78:ACE_ECF_25/Algorithm/user_maths/cpp_files/user_maths.cpp ****                 num += limit_num;
  79:ACE_ECF_25/Algorithm/user_maths/cpp_files/user_maths.cpp ****         }
  80:ACE_ECF_25/Algorithm/user_maths/cpp_files/user_maths.cpp ****         return num;
ARM GAS  C:\Users\28212\AppData\Local\Temp\cc7dq27q.s 			page 5


  81:ACE_ECF_25/Algorithm/user_maths/cpp_files/user_maths.cpp ****     }
  82:ACE_ECF_25/Algorithm/user_maths/cpp_files/user_maths.cpp **** 
  83:ACE_ECF_25/Algorithm/user_maths/cpp_files/user_maths.cpp ****     /*循环限幅32*/
  84:ACE_ECF_25/Algorithm/user_maths/cpp_files/user_maths.cpp ****     float loop_fp32_constrain(float Input, float minValue, float maxValue)
  85:ACE_ECF_25/Algorithm/user_maths/cpp_files/user_maths.cpp ****     {
 149              		.loc 1 85 5 is_stmt 1 view -0
 150              		.cfi_startproc
 151              		@ args = 0, pretend = 0, frame = 0
 152              		@ frame_needed = 0, uses_anonymous_args = 0
 153              		@ link register save eliminated.
  86:ACE_ECF_25/Algorithm/user_maths/cpp_files/user_maths.cpp ****         if (maxValue < minValue)
 154              		.loc 1 86 9 view .LVU18
 155 0000 B4EEE01A 		vcmpe.f32	s2, s1	@ maxValue, minValue
 156 0004 F1EE10FA 		vmrs	APSR_nzcv, FPSCR
 157 0008 0ED4     		bmi	.L5		@,
  87:ACE_ECF_25/Algorithm/user_maths/cpp_files/user_maths.cpp ****         {
  88:ACE_ECF_25/Algorithm/user_maths/cpp_files/user_maths.cpp ****             return Input;
  89:ACE_ECF_25/Algorithm/user_maths/cpp_files/user_maths.cpp ****         }
  90:ACE_ECF_25/Algorithm/user_maths/cpp_files/user_maths.cpp **** 
  91:ACE_ECF_25/Algorithm/user_maths/cpp_files/user_maths.cpp ****         if (Input > maxValue)
 158              		.loc 1 91 9 view .LVU19
 159              	.LBB2:
 160 000a B4EEC01A 		vcmpe.f32	s2, s0	@ maxValue, Input
 161 000e F1EE10FA 		vmrs	APSR_nzcv, FPSCR
 162 0012 0AD5     		bpl	.L17		@,
 163              	.LBB3:
  92:ACE_ECF_25/Algorithm/user_maths/cpp_files/user_maths.cpp ****         {
  93:ACE_ECF_25/Algorithm/user_maths/cpp_files/user_maths.cpp ****             float len = maxValue - minValue;
 164              		.loc 1 93 13 view .LVU20
 165              	@ ACE_ECF_25/Algorithm/user_maths/cpp_files/user_maths.cpp:93:             float len = maxValue - m
 166              		.loc 1 93 19 is_stmt 0 view .LVU21
 167 0014 71EE600A 		vsub.f32	s1, s2, s1	@ len, maxValue, minValue
 168              	.LVL9:
 169              		.loc 1 93 19 view .LVU22
 170 0018 01E0     		b	.L9		@
 171              	.L18:
  94:ACE_ECF_25/Algorithm/user_maths/cpp_files/user_maths.cpp ****             while (Input > maxValue)
  95:ACE_ECF_25/Algorithm/user_maths/cpp_files/user_maths.cpp ****             {
  96:ACE_ECF_25/Algorithm/user_maths/cpp_files/user_maths.cpp ****                 Input -= len;
 172              		.loc 1 96 17 is_stmt 1 view .LVU23
 173              	@ ACE_ECF_25/Algorithm/user_maths/cpp_files/user_maths.cpp:96:                 Input -= len;
 174              		.loc 1 96 23 is_stmt 0 view .LVU24
 175 001a 30EE600A 		vsub.f32	s0, s0, s1	@ Input, Input, len
 176              	.LVL10:
 177              	.L9:
  94:ACE_ECF_25/Algorithm/user_maths/cpp_files/user_maths.cpp ****             while (Input > maxValue)
 178              		.loc 1 94 13 is_stmt 1 view .LVU25
  94:ACE_ECF_25/Algorithm/user_maths/cpp_files/user_maths.cpp ****             while (Input > maxValue)
 179              		.loc 1 94 26 view .LVU26
 180 001e B4EEC10A 		vcmpe.f32	s0, s2	@ Input, maxValue
 181 0022 F1EE10FA 		vmrs	APSR_nzcv, FPSCR
 182 0026 F8DC     		bgt	.L18		@,
 183              	.LVL11:
 184              	.L5:
  94:ACE_ECF_25/Algorithm/user_maths/cpp_files/user_maths.cpp ****             while (Input > maxValue)
 185              		.loc 1 94 26 is_stmt 0 view .LVU27
 186              	.LBE3:
ARM GAS  C:\Users\28212\AppData\Local\Temp\cc7dq27q.s 			page 6


 187              	.LBE2:
 188              	@ ACE_ECF_25/Algorithm/user_maths/cpp_files/user_maths.cpp:108:     }
  97:ACE_ECF_25/Algorithm/user_maths/cpp_files/user_maths.cpp ****             }
  98:ACE_ECF_25/Algorithm/user_maths/cpp_files/user_maths.cpp ****         }
  99:ACE_ECF_25/Algorithm/user_maths/cpp_files/user_maths.cpp ****         else if (Input < minValue)
 100:ACE_ECF_25/Algorithm/user_maths/cpp_files/user_maths.cpp ****         {
 101:ACE_ECF_25/Algorithm/user_maths/cpp_files/user_maths.cpp ****             float len = maxValue - minValue;
 102:ACE_ECF_25/Algorithm/user_maths/cpp_files/user_maths.cpp ****             while (Input < minValue)
 103:ACE_ECF_25/Algorithm/user_maths/cpp_files/user_maths.cpp ****             {
 104:ACE_ECF_25/Algorithm/user_maths/cpp_files/user_maths.cpp ****                 Input += len;
 105:ACE_ECF_25/Algorithm/user_maths/cpp_files/user_maths.cpp ****             }
 106:ACE_ECF_25/Algorithm/user_maths/cpp_files/user_maths.cpp ****         }
 107:ACE_ECF_25/Algorithm/user_maths/cpp_files/user_maths.cpp ****         return Input;
 108:ACE_ECF_25/Algorithm/user_maths/cpp_files/user_maths.cpp ****     }
 189              		.loc 1 108 5 view .LVU28
 190 0028 7047     		bx	lr	@
 191              	.LVL12:
 192              	.L17:
  99:ACE_ECF_25/Algorithm/user_maths/cpp_files/user_maths.cpp ****         {
 193              		.loc 1 99 14 is_stmt 1 view .LVU29
 194              	.LBB6:
 195              	.LBB4:
 196 002a F4EEC00A 		vcmpe.f32	s1, s0	@ minValue, Input
 197 002e F1EE10FA 		vmrs	APSR_nzcv, FPSCR
 198 0032 F9DD     		ble	.L5		@,
 199              	.LBB5:
 101:ACE_ECF_25/Algorithm/user_maths/cpp_files/user_maths.cpp ****             while (Input < minValue)
 200              		.loc 1 101 13 view .LVU30
 201              	@ ACE_ECF_25/Algorithm/user_maths/cpp_files/user_maths.cpp:101:             float len = maxValue - 
 101:ACE_ECF_25/Algorithm/user_maths/cpp_files/user_maths.cpp ****             while (Input < minValue)
 202              		.loc 1 101 19 is_stmt 0 view .LVU31
 203 0034 31EE601A 		vsub.f32	s2, s2, s1	@ len, maxValue, minValue
 204              	.LVL13:
 205              	.L12:
 102:ACE_ECF_25/Algorithm/user_maths/cpp_files/user_maths.cpp ****             {
 206              		.loc 1 102 13 is_stmt 1 view .LVU32
 102:ACE_ECF_25/Algorithm/user_maths/cpp_files/user_maths.cpp ****             {
 207              		.loc 1 102 26 view .LVU33
 208 0038 B4EEE00A 		vcmpe.f32	s0, s1	@ Input, minValue
 209 003c F1EE10FA 		vmrs	APSR_nzcv, FPSCR
 210 0040 F2D5     		bpl	.L5		@,
 104:ACE_ECF_25/Algorithm/user_maths/cpp_files/user_maths.cpp ****             }
 211              		.loc 1 104 17 view .LVU34
 212              	@ ACE_ECF_25/Algorithm/user_maths/cpp_files/user_maths.cpp:104:                 Input += len;
 104:ACE_ECF_25/Algorithm/user_maths/cpp_files/user_maths.cpp ****             }
 213              		.loc 1 104 23 is_stmt 0 view .LVU35
 214 0042 30EE010A 		vadd.f32	s0, s0, s2	@ Input, Input, len
 215              	.LVL14:
 216              	@ ACE_ECF_25/Algorithm/user_maths/cpp_files/user_maths.cpp:102:             while (Input < minValue
 102:ACE_ECF_25/Algorithm/user_maths/cpp_files/user_maths.cpp ****             {
 217              		.loc 1 102 13 view .LVU36
 218 0046 F7E7     		b	.L12		@
 219              	.LBE5:
 220              	.LBE4:
 221              	.LBE6:
 222              		.cfi_endproc
 223              	.LFE381:
ARM GAS  C:\Users\28212\AppData\Local\Temp\cc7dq27q.s 			page 7


 224              		.size	_ZN8UserMath19loop_fp32_constrainEfff, .-_ZN8UserMath19loop_fp32_constrainEfff
 225              		.section	.text._ZN8UserMath15limiting_filterEfff,"ax",%progbits
 226              		.align	1
 227              		.global	_ZN8UserMath15limiting_filterEfff
 228              		.syntax unified
 229              		.thumb
 230              		.thumb_func
 231              		.type	_ZN8UserMath15limiting_filterEfff, %function
 232              	_ZN8UserMath15limiting_filterEfff:
 233              	.LVL15:
 234              	.LFB383:
 109:ACE_ECF_25/Algorithm/user_maths/cpp_files/user_maths.cpp **** 
 110:ACE_ECF_25/Algorithm/user_maths/cpp_files/user_maths.cpp ****     //斜坡函数(加速度限制)
 111:ACE_ECF_25/Algorithm/user_maths/cpp_files/user_maths.cpp ****     void data_accelerated_control(float *input, float acc)
 112:ACE_ECF_25/Algorithm/user_maths/cpp_files/user_maths.cpp ****     {
 113:ACE_ECF_25/Algorithm/user_maths/cpp_files/user_maths.cpp ****         static int16_t last_num = 0;
 114:ACE_ECF_25/Algorithm/user_maths/cpp_files/user_maths.cpp ****         int16_t temp;
 115:ACE_ECF_25/Algorithm/user_maths/cpp_files/user_maths.cpp ****         temp = *input - last_num;
 116:ACE_ECF_25/Algorithm/user_maths/cpp_files/user_maths.cpp **** 
 117:ACE_ECF_25/Algorithm/user_maths/cpp_files/user_maths.cpp ****         if (abs(temp) > acc)
 118:ACE_ECF_25/Algorithm/user_maths/cpp_files/user_maths.cpp ****             *input = last_num + temp / abs(temp) * acc;
 119:ACE_ECF_25/Algorithm/user_maths/cpp_files/user_maths.cpp **** 
 120:ACE_ECF_25/Algorithm/user_maths/cpp_files/user_maths.cpp ****         last_num = *input;
 121:ACE_ECF_25/Algorithm/user_maths/cpp_files/user_maths.cpp ****     }
 122:ACE_ECF_25/Algorithm/user_maths/cpp_files/user_maths.cpp **** 
 123:ACE_ECF_25/Algorithm/user_maths/cpp_files/user_maths.cpp ****     // 限幅滤波函数
 124:ACE_ECF_25/Algorithm/user_maths/cpp_files/user_maths.cpp ****     float limiting_filter(float new_value, float last_value, float delat_max)
 125:ACE_ECF_25/Algorithm/user_maths/cpp_files/user_maths.cpp ****     {
 235              		.loc 1 125 5 is_stmt 1 view -0
 236              		.cfi_startproc
 237              		@ args = 0, pretend = 0, frame = 0
 238              		@ frame_needed = 0, uses_anonymous_args = 0
 239              		@ link register save eliminated.
 240              		.loc 1 125 5 is_stmt 0 view .LVU38
 241 0000 F0EE407A 		vmov.f32	s15, s0	@ new_value, tmp120
 242 0004 B0EE600A 		vmov.f32	s0, s1	@ last_value, tmp121
 243              	.LVL16:
 126:ACE_ECF_25/Algorithm/user_maths/cpp_files/user_maths.cpp ****         if ((new_value - last_value > delat_max) || (last_value - new_value > delat_max))
 244              		.loc 1 126 9 is_stmt 1 view .LVU39
 245              	@ ACE_ECF_25/Algorithm/user_maths/cpp_files/user_maths.cpp:126:         if ((new_value - last_value
 246              		.loc 1 126 24 is_stmt 0 view .LVU40
 247 0008 37EEE07A 		vsub.f32	s14, s15, s1	@ _1, new_value, last_value
 248              	@ ACE_ECF_25/Algorithm/user_maths/cpp_files/user_maths.cpp:126:         if ((new_value - last_value
 249              		.loc 1 126 9 view .LVU41
 250 000c B4EEC17A 		vcmpe.f32	s14, s2	@ _1, delat_max
 251 0010 F1EE10FA 		vmrs	APSR_nzcv, FPSCR
 252 0014 08DC     		bgt	.L20		@,
 253              	@ ACE_ECF_25/Algorithm/user_maths/cpp_files/user_maths.cpp:126:         if ((new_value - last_value
 254              		.loc 1 126 65 discriminator 1 view .LVU42
 255 0016 30EEE77A 		vsub.f32	s14, s1, s15	@ _2, last_value, new_value
 256              	@ ACE_ECF_25/Algorithm/user_maths/cpp_files/user_maths.cpp:126:         if ((new_value - last_value
 257              		.loc 1 126 50 discriminator 1 view .LVU43
 258 001a B4EEC17A 		vcmpe.f32	s14, s2	@ _2, delat_max
 259 001e F1EE10FA 		vmrs	APSR_nzcv, FPSCR
 260 0022 01DC     		bgt	.L20		@,
 261              	@ ACE_ECF_25/Algorithm/user_maths/cpp_files/user_maths.cpp:128:         return new_value;
 127:ACE_ECF_25/Algorithm/user_maths/cpp_files/user_maths.cpp ****             return last_value;
ARM GAS  C:\Users\28212\AppData\Local\Temp\cc7dq27q.s 			page 8


 128:ACE_ECF_25/Algorithm/user_maths/cpp_files/user_maths.cpp ****         return new_value;
 262              		.loc 1 128 16 view .LVU44
 263 0024 B0EE670A 		vmov.f32	s0, s15	@ last_value, new_value
 264              	.L20:
 265              	@ ACE_ECF_25/Algorithm/user_maths/cpp_files/user_maths.cpp:129:     }
 129:ACE_ECF_25/Algorithm/user_maths/cpp_files/user_maths.cpp ****     }
 266              		.loc 1 129 5 view .LVU45
 267 0028 7047     		bx	lr	@
 268              		.cfi_endproc
 269              	.LFE383:
 270              		.size	_ZN8UserMath15limiting_filterEfff, .-_ZN8UserMath15limiting_filterEfff
 271              		.section	.text._ZN8UserMath3absIsEET_S1_,"axG",%progbits,_ZN8UserMath3absIsEET_S1_,comdat
 272              		.align	1
 273              		.weak	_ZN8UserMath3absIsEET_S1_
 274              		.syntax unified
 275              		.thumb
 276              		.thumb_func
 277              		.type	_ZN8UserMath3absIsEET_S1_, %function
 278              	_ZN8UserMath3absIsEET_S1_:
 279              	.LVL17:
 280              	.LFB388:
 281              		.file 2 "ACE_ECF_25/Algorithm/user_maths/cpp_files/user_maths.hpp"
   1:ACE_ECF_25/Algorithm/user_maths/cpp_files/user_maths.hpp **** #ifndef __MATHS_H
   2:ACE_ECF_25/Algorithm/user_maths/cpp_files/user_maths.hpp **** #define __MATHS_H
   3:ACE_ECF_25/Algorithm/user_maths/cpp_files/user_maths.hpp **** 
   4:ACE_ECF_25/Algorithm/user_maths/cpp_files/user_maths.hpp **** #include <cstdint>
   5:ACE_ECF_25/Algorithm/user_maths/cpp_files/user_maths.hpp **** 
   6:ACE_ECF_25/Algorithm/user_maths/cpp_files/user_maths.hpp **** namespace UserMath
   7:ACE_ECF_25/Algorithm/user_maths/cpp_files/user_maths.hpp **** {
   8:ACE_ECF_25/Algorithm/user_maths/cpp_files/user_maths.hpp **** 
   9:ACE_ECF_25/Algorithm/user_maths/cpp_files/user_maths.hpp **** #ifndef PI
  10:ACE_ECF_25/Algorithm/user_maths/cpp_files/user_maths.hpp **** #define PI 3.14159265358979f
  11:ACE_ECF_25/Algorithm/user_maths/cpp_files/user_maths.hpp **** #endif
  12:ACE_ECF_25/Algorithm/user_maths/cpp_files/user_maths.hpp **** 
  13:ACE_ECF_25/Algorithm/user_maths/cpp_files/user_maths.hpp ****     //运动加速度限制斜坡函数
  14:ACE_ECF_25/Algorithm/user_maths/cpp_files/user_maths.hpp ****     typedef struct
  15:ACE_ECF_25/Algorithm/user_maths/cpp_files/user_maths.hpp ****     {
  16:ACE_ECF_25/Algorithm/user_maths/cpp_files/user_maths.hpp ****         float Input;     //当前取样值
  17:ACE_ECF_25/Algorithm/user_maths/cpp_files/user_maths.hpp ****         float Last_Input;//上次取样值
  18:ACE_ECF_25/Algorithm/user_maths/cpp_files/user_maths.hpp ****         float Output;    //输出值
  19:ACE_ECF_25/Algorithm/user_maths/cpp_files/user_maths.hpp ****         float acc_now;   //当前加速度
  20:ACE_ECF_25/Algorithm/user_maths/cpp_files/user_maths.hpp ****         float acc_limit; //需要限制的加速度
  21:ACE_ECF_25/Algorithm/user_maths/cpp_files/user_maths.hpp ****     } acceleration_control_type_t;
  22:ACE_ECF_25/Algorithm/user_maths/cpp_files/user_maths.hpp **** 
  23:ACE_ECF_25/Algorithm/user_maths/cpp_files/user_maths.hpp ****     /**
  24:ACE_ECF_25/Algorithm/user_maths/cpp_files/user_maths.hpp ****      * 绝对值
  25:ACE_ECF_25/Algorithm/user_maths/cpp_files/user_maths.hpp ****      */
  26:ACE_ECF_25/Algorithm/user_maths/cpp_files/user_maths.hpp ****     template<class T>
  27:ACE_ECF_25/Algorithm/user_maths/cpp_files/user_maths.hpp ****     T abs(T x)
 282              		.loc 2 27 7 is_stmt 1 view -0
 283              		.cfi_startproc
 284              		@ args = 0, pretend = 0, frame = 0
 285              		@ frame_needed = 0, uses_anonymous_args = 0
 286              		@ link register save eliminated.
 287              	@ ACE_ECF_25/Algorithm/user_maths/cpp_files/user_maths.hpp:29:         return x > 0 ? x : -x;
  28:ACE_ECF_25/Algorithm/user_maths/cpp_files/user_maths.hpp ****     {
  29:ACE_ECF_25/Algorithm/user_maths/cpp_files/user_maths.hpp ****         return x > 0 ? x : -x;
ARM GAS  C:\Users\28212\AppData\Local\Temp\cc7dq27q.s 			page 9


 288              		.loc 2 29 22 is_stmt 0 view .LVU47
 289 0000 0028     		cmp	r0, #0	@ tmp116,
 290 0002 B8BF     		it	lt
 291 0004 4042     		rsblt	r0, r0, #0	@ tmp116, tmp119,
 292              	.LVL18:
 293              	@ ACE_ECF_25/Algorithm/user_maths/cpp_files/user_maths.hpp:30:     }
  30:ACE_ECF_25/Algorithm/user_maths/cpp_files/user_maths.hpp ****     }
 294              		.loc 2 30 5 view .LVU48
 295 0006 00B2     		sxth	r0, r0	@, tmp116
 296 0008 7047     		bx	lr	@
 297              		.cfi_endproc
 298              	.LFE388:
 299              		.size	_ZN8UserMath3absIsEET_S1_, .-_ZN8UserMath3absIsEET_S1_
 300              		.section	.text._ZN8UserMath22loop_restriction_int16Ess,"ax",%progbits
 301              		.align	1
 302              		.global	_ZN8UserMath22loop_restriction_int16Ess
 303              		.syntax unified
 304              		.thumb
 305              		.thumb_func
 306              		.type	_ZN8UserMath22loop_restriction_int16Ess, %function
 307              	_ZN8UserMath22loop_restriction_int16Ess:
 308              	.LVL19:
 309              	.LFB379:
  54:ACE_ECF_25/Algorithm/user_maths/cpp_files/user_maths.cpp ****         if (abs(num) > limit_num)
 310              		.loc 1 54 5 is_stmt 1 view -0
 311              		.cfi_startproc
 312              		@ args = 0, pretend = 0, frame = 0
 313              		@ frame_needed = 0, uses_anonymous_args = 0
  54:ACE_ECF_25/Algorithm/user_maths/cpp_files/user_maths.cpp ****         if (abs(num) > limit_num)
 314              		.loc 1 54 5 is_stmt 0 view .LVU50
 315 0000 38B5     		push	{r3, r4, r5, lr}	@
 316              	.LCFI0:
 317              		.cfi_def_cfa_offset 16
 318              		.cfi_offset 3, -16
 319              		.cfi_offset 4, -12
 320              		.cfi_offset 5, -8
 321              		.cfi_offset 14, -4
 322 0002 0446     		mov	r4, r0	@ num, tmp133
 323 0004 0D46     		mov	r5, r1	@ limit_num, tmp134
  55:ACE_ECF_25/Algorithm/user_maths/cpp_files/user_maths.cpp ****         {
 324              		.loc 1 55 9 is_stmt 1 view .LVU51
 325              	@ ACE_ECF_25/Algorithm/user_maths/cpp_files/user_maths.cpp:55:         if (abs(num) > limit_num)
  55:ACE_ECF_25/Algorithm/user_maths/cpp_files/user_maths.cpp ****         {
 326              		.loc 1 55 16 is_stmt 0 view .LVU52
 327 0006 FFF7FEFF 		bl	_ZN8UserMath3absIsEET_S1_		@
 328              	.LVL20:
 329              	@ ACE_ECF_25/Algorithm/user_maths/cpp_files/user_maths.cpp:55:         if (abs(num) > limit_num)
  55:ACE_ECF_25/Algorithm/user_maths/cpp_files/user_maths.cpp ****         {
 330              		.loc 1 55 9 view .LVU53
 331 000a A842     		cmp	r0, r5	@ tmp135, limit_num
 332 000c 03DD     		ble	.L23		@,
  57:ACE_ECF_25/Algorithm/user_maths/cpp_files/user_maths.cpp ****                 num -= limit_num;
 333              		.loc 1 57 13 is_stmt 1 view .LVU54
 334 000e 002C     		cmp	r4, #0	@ num,
 335 0010 03DB     		blt	.L24		@,
  58:ACE_ECF_25/Algorithm/user_maths/cpp_files/user_maths.cpp ****             else
 336              		.loc 1 58 17 view .LVU55
ARM GAS  C:\Users\28212\AppData\Local\Temp\cc7dq27q.s 			page 10


 337              	@ ACE_ECF_25/Algorithm/user_maths/cpp_files/user_maths.cpp:58:                 num -= limit_num;
  58:ACE_ECF_25/Algorithm/user_maths/cpp_files/user_maths.cpp ****             else
 338              		.loc 1 58 21 is_stmt 0 view .LVU56
 339 0012 641B     		subs	r4, r4, r5	@ tmp128, num, limit_num
 340 0014 24B2     		sxth	r4, r4	@ num, tmp128
 341              	.LVL21:
 342              	.L23:
  62:ACE_ECF_25/Algorithm/user_maths/cpp_files/user_maths.cpp ****     }
 343              		.loc 1 62 9 is_stmt 1 view .LVU57
 344              	@ ACE_ECF_25/Algorithm/user_maths/cpp_files/user_maths.cpp:63:     }
  63:ACE_ECF_25/Algorithm/user_maths/cpp_files/user_maths.cpp **** 
 345              		.loc 1 63 5 is_stmt 0 view .LVU58
 346 0016 2046     		mov	r0, r4	@, num
 347 0018 38BD     		pop	{r3, r4, r5, pc}	@
 348              	.LVL22:
 349              	.L24:
  60:ACE_ECF_25/Algorithm/user_maths/cpp_files/user_maths.cpp ****         }
 350              		.loc 1 60 17 is_stmt 1 view .LVU59
 351              	@ ACE_ECF_25/Algorithm/user_maths/cpp_files/user_maths.cpp:60:                 num += limit_num;
  60:ACE_ECF_25/Algorithm/user_maths/cpp_files/user_maths.cpp ****         }
 352              		.loc 1 60 21 is_stmt 0 view .LVU60
 353 001a 2C44     		add	r4, r4, r5	@ tmp131, limit_num
 354 001c 24B2     		sxth	r4, r4	@ num, tmp131
 355              	.LVL23:
  60:ACE_ECF_25/Algorithm/user_maths/cpp_files/user_maths.cpp ****         }
 356              		.loc 1 60 21 view .LVU61
 357 001e FAE7     		b	.L23		@
 358              		.cfi_endproc
 359              	.LFE379:
 360              		.size	_ZN8UserMath22loop_restriction_int16Ess, .-_ZN8UserMath22loop_restriction_int16Ess
 361              		.section	.text._ZN8UserMath24data_accelerated_controlEPff,"ax",%progbits
 362              		.align	1
 363              		.global	_ZN8UserMath24data_accelerated_controlEPff
 364              		.syntax unified
 365              		.thumb
 366              		.thumb_func
 367              		.type	_ZN8UserMath24data_accelerated_controlEPff, %function
 368              	_ZN8UserMath24data_accelerated_controlEPff:
 369              	.LVL24:
 370              	.LFB382:
 112:ACE_ECF_25/Algorithm/user_maths/cpp_files/user_maths.cpp ****         static int16_t last_num = 0;
 371              		.loc 1 112 5 is_stmt 1 view -0
 372              		.cfi_startproc
 373              		@ args = 0, pretend = 0, frame = 0
 374              		@ frame_needed = 0, uses_anonymous_args = 0
 112:ACE_ECF_25/Algorithm/user_maths/cpp_files/user_maths.cpp ****         static int16_t last_num = 0;
 375              		.loc 1 112 5 is_stmt 0 view .LVU63
 376 0000 38B5     		push	{r3, r4, r5, lr}	@
 377              	.LCFI1:
 378              		.cfi_def_cfa_offset 16
 379              		.cfi_offset 3, -16
 380              		.cfi_offset 4, -12
 381              		.cfi_offset 5, -8
 382              		.cfi_offset 14, -4
 383 0002 2DED028B 		vpush.64	{d8}	@
 384              	.LCFI2:
 385              		.cfi_def_cfa_offset 24
ARM GAS  C:\Users\28212\AppData\Local\Temp\cc7dq27q.s 			page 11


 386              		.cfi_offset 80, -24
 387              		.cfi_offset 81, -20
 388 0006 0546     		mov	r5, r0	@ input, tmp139
 389 0008 F0EE408A 		vmov.f32	s17, s0	@ acc, tmp140
 113:ACE_ECF_25/Algorithm/user_maths/cpp_files/user_maths.cpp ****         int16_t temp;
 390              		.loc 1 113 9 is_stmt 1 view .LVU64
 114:ACE_ECF_25/Algorithm/user_maths/cpp_files/user_maths.cpp ****         temp = *input - last_num;
 391              		.loc 1 114 9 view .LVU65
 115:ACE_ECF_25/Algorithm/user_maths/cpp_files/user_maths.cpp **** 
 392              		.loc 1 115 9 view .LVU66
 393              	@ ACE_ECF_25/Algorithm/user_maths/cpp_files/user_maths.cpp:115:         temp = *input - last_num;
 115:ACE_ECF_25/Algorithm/user_maths/cpp_files/user_maths.cpp **** 
 394              		.loc 1 115 16 is_stmt 0 view .LVU67
 395 000c D0ED007A 		vldr.32	s15, [r0]	@ _1, *input_17(D)
 396              	@ ACE_ECF_25/Algorithm/user_maths/cpp_files/user_maths.cpp:115:         temp = *input - last_num;
 115:ACE_ECF_25/Algorithm/user_maths/cpp_files/user_maths.cpp **** 
 397              		.loc 1 115 23 view .LVU68
 398 0010 184B     		ldr	r3, .L31	@ tmp130,
 399 0012 B3F90030 		ldrsh	r3, [r3]	@ last_num, last_num
 400 0016 08EE103A 		vmov	s16, r3	@ int	@ last_num, last_num
 401 001a B8EEC88A 		vcvt.f32.s32	s16, s16	@ _3, last_num
 402 001e 77EEC87A 		vsub.f32	s15, s15, s16	@ _4, _1, _3
 403              	@ ACE_ECF_25/Algorithm/user_maths/cpp_files/user_maths.cpp:115:         temp = *input - last_num;
 115:ACE_ECF_25/Algorithm/user_maths/cpp_files/user_maths.cpp **** 
 404              		.loc 1 115 14 view .LVU69
 405 0022 FDEEE77A 		vcvt.s32.f32	s15, s15	@ tmp133, _4
 406 0026 17EE903A 		vmov	r3, s15	@ int	@ tmp133, tmp133
 407 002a 1CB2     		sxth	r4, r3	@ temp, tmp133
 408              	.LVL25:
 117:ACE_ECF_25/Algorithm/user_maths/cpp_files/user_maths.cpp ****             *input = last_num + temp / abs(temp) * acc;
 409              		.loc 1 117 9 is_stmt 1 view .LVU70
 410              	@ ACE_ECF_25/Algorithm/user_maths/cpp_files/user_maths.cpp:117:         if (abs(temp) > acc)
 117:ACE_ECF_25/Algorithm/user_maths/cpp_files/user_maths.cpp ****             *input = last_num + temp / abs(temp) * acc;
 411              		.loc 1 117 16 is_stmt 0 view .LVU71
 412 002c 2046     		mov	r0, r4	@, temp
 413              	.LVL26:
 117:ACE_ECF_25/Algorithm/user_maths/cpp_files/user_maths.cpp ****             *input = last_num + temp / abs(temp) * acc;
 414              		.loc 1 117 16 view .LVU72
 415 002e FFF7FEFF 		bl	_ZN8UserMath3absIsEET_S1_		@
 416              	.LVL27:
 417              	@ ACE_ECF_25/Algorithm/user_maths/cpp_files/user_maths.cpp:117:         if (abs(temp) > acc)
 117:ACE_ECF_25/Algorithm/user_maths/cpp_files/user_maths.cpp ****             *input = last_num + temp / abs(temp) * acc;
 418              		.loc 1 117 23 view .LVU73
 419 0032 07EE900A 		vmov	s15, r0	@ int	@ _5, _5
 420 0036 F8EEE77A 		vcvt.f32.s32	s15, s15	@ _6, _5
 421              	@ ACE_ECF_25/Algorithm/user_maths/cpp_files/user_maths.cpp:117:         if (abs(temp) > acc)
 117:ACE_ECF_25/Algorithm/user_maths/cpp_files/user_maths.cpp ****             *input = last_num + temp / abs(temp) * acc;
 422              		.loc 1 117 9 view .LVU74
 423 003a F4EEE87A 		vcmpe.f32	s15, s17	@ _6, acc
 424 003e F1EE10FA 		vmrs	APSR_nzcv, FPSCR
 425 0042 0BDD     		ble	.L27		@,
 118:ACE_ECF_25/Algorithm/user_maths/cpp_files/user_maths.cpp **** 
 426              		.loc 1 118 13 is_stmt 1 view .LVU75
 427              	@ ACE_ECF_25/Algorithm/user_maths/cpp_files/user_maths.cpp:118:             *input = last_num + tem
 118:ACE_ECF_25/Algorithm/user_maths/cpp_files/user_maths.cpp **** 
 428              		.loc 1 118 38 is_stmt 0 view .LVU76
 429 0044 94FBF0F4 		sdiv	r4, r4, r0	@ _9, temp, _5
ARM GAS  C:\Users\28212\AppData\Local\Temp\cc7dq27q.s 			page 12


 430              	.LVL28:
 431              	@ ACE_ECF_25/Algorithm/user_maths/cpp_files/user_maths.cpp:118:             *input = last_num + tem
 118:ACE_ECF_25/Algorithm/user_maths/cpp_files/user_maths.cpp **** 
 432              		.loc 1 118 50 view .LVU77
 433 0048 07EE904A 		vmov	s15, r4	@ int	@ _9, _9
 434 004c F8EEE77A 		vcvt.f32.s32	s15, s15	@ tmp135, _9
 435 0050 27EEA80A 		vmul.f32	s0, s15, s17	@ _11, tmp135, acc
 436              	@ ACE_ECF_25/Algorithm/user_maths/cpp_files/user_maths.cpp:118:             *input = last_num + tem
 118:ACE_ECF_25/Algorithm/user_maths/cpp_files/user_maths.cpp **** 
 437              		.loc 1 118 31 view .LVU78
 438 0054 38EE000A 		vadd.f32	s0, s16, s0	@ _12, _3, _11
 439              	@ ACE_ECF_25/Algorithm/user_maths/cpp_files/user_maths.cpp:118:             *input = last_num + tem
 118:ACE_ECF_25/Algorithm/user_maths/cpp_files/user_maths.cpp **** 
 440              		.loc 1 118 20 view .LVU79
 441 0058 85ED000A 		vstr.32	s0, [r5]	@ _12, *input_17(D)
 442              	.L27:
 120:ACE_ECF_25/Algorithm/user_maths/cpp_files/user_maths.cpp ****     }
 443              		.loc 1 120 9 is_stmt 1 view .LVU80
 444              	@ ACE_ECF_25/Algorithm/user_maths/cpp_files/user_maths.cpp:120:         last_num = *input;
 120:ACE_ECF_25/Algorithm/user_maths/cpp_files/user_maths.cpp ****     }
 445              		.loc 1 120 20 is_stmt 0 view .LVU81
 446 005c D5ED007A 		vldr.32	s15, [r5]	@ _13, *input_17(D)
 447              	@ ACE_ECF_25/Algorithm/user_maths/cpp_files/user_maths.cpp:120:         last_num = *input;
 120:ACE_ECF_25/Algorithm/user_maths/cpp_files/user_maths.cpp ****     }
 448              		.loc 1 120 18 view .LVU82
 449 0060 FDEEE77A 		vcvt.s32.f32	s15, s15	@ tmp137, _13
 450 0064 034B     		ldr	r3, .L31	@ tmp136,
 451 0066 17EE902A 		vmov	r2, s15	@ int	@ tmp137, tmp137
 452 006a 1A80     		strh	r2, [r3]	@ movhi	@ tmp137, last_num
 453              	@ ACE_ECF_25/Algorithm/user_maths/cpp_files/user_maths.cpp:121:     }
 121:ACE_ECF_25/Algorithm/user_maths/cpp_files/user_maths.cpp **** 
 454              		.loc 1 121 5 view .LVU83
 455 006c BDEC028B 		vldm	sp!, {d8}	@
 456              	.LCFI3:
 457              		.cfi_restore 80
 458              		.cfi_restore 81
 459              		.cfi_def_cfa_offset 16
 460 0070 38BD     		pop	{r3, r4, r5, pc}	@
 461              	.LVL29:
 462              	.L32:
 121:ACE_ECF_25/Algorithm/user_maths/cpp_files/user_maths.cpp **** 
 463              		.loc 1 121 5 view .LVU84
 464 0072 00BF     		.align	2
 465              	.L31:
 466 0074 00000000 		.word	.LANCHOR0
 467              		.cfi_endproc
 468              	.LFE382:
 469              		.size	_ZN8UserMath24data_accelerated_controlEPff, .-_ZN8UserMath24data_accelerated_controlEPff
 470              		.section	.text._ZN8UserMath3maxIsEET_S1_S1_,"axG",%progbits,_ZN8UserMath3maxIsEET_S1_S1_,comdat
 471              		.align	1
 472              		.weak	_ZN8UserMath3maxIsEET_S1_S1_
 473              		.syntax unified
 474              		.thumb
 475              		.thumb_func
 476              		.type	_ZN8UserMath3maxIsEET_S1_S1_, %function
 477              	_ZN8UserMath3maxIsEET_S1_S1_:
 478              	.LVL30:
ARM GAS  C:\Users\28212\AppData\Local\Temp\cc7dq27q.s 			page 13


 479              	.LFB389:
  31:ACE_ECF_25/Algorithm/user_maths/cpp_files/user_maths.hpp **** 
  32:ACE_ECF_25/Algorithm/user_maths/cpp_files/user_maths.hpp ****     /**
  33:ACE_ECF_25/Algorithm/user_maths/cpp_files/user_maths.hpp ****      * 数字限幅
  34:ACE_ECF_25/Algorithm/user_maths/cpp_files/user_maths.hpp ****      */
  35:ACE_ECF_25/Algorithm/user_maths/cpp_files/user_maths.hpp ****     template<class T, class S, class R>
  36:ACE_ECF_25/Algorithm/user_maths/cpp_files/user_maths.hpp ****     T clamp(T val, S min, R max)
  37:ACE_ECF_25/Algorithm/user_maths/cpp_files/user_maths.hpp ****     {
  38:ACE_ECF_25/Algorithm/user_maths/cpp_files/user_maths.hpp ****         if (val < min)
  39:ACE_ECF_25/Algorithm/user_maths/cpp_files/user_maths.hpp ****         {
  40:ACE_ECF_25/Algorithm/user_maths/cpp_files/user_maths.hpp ****             return min;
  41:ACE_ECF_25/Algorithm/user_maths/cpp_files/user_maths.hpp ****         }
  42:ACE_ECF_25/Algorithm/user_maths/cpp_files/user_maths.hpp ****         else if (val > max)
  43:ACE_ECF_25/Algorithm/user_maths/cpp_files/user_maths.hpp ****         {
  44:ACE_ECF_25/Algorithm/user_maths/cpp_files/user_maths.hpp ****             return max;
  45:ACE_ECF_25/Algorithm/user_maths/cpp_files/user_maths.hpp ****         }
  46:ACE_ECF_25/Algorithm/user_maths/cpp_files/user_maths.hpp ****         else
  47:ACE_ECF_25/Algorithm/user_maths/cpp_files/user_maths.hpp ****         {
  48:ACE_ECF_25/Algorithm/user_maths/cpp_files/user_maths.hpp ****             return val;
  49:ACE_ECF_25/Algorithm/user_maths/cpp_files/user_maths.hpp ****         }
  50:ACE_ECF_25/Algorithm/user_maths/cpp_files/user_maths.hpp ****     }
  51:ACE_ECF_25/Algorithm/user_maths/cpp_files/user_maths.hpp **** 
  52:ACE_ECF_25/Algorithm/user_maths/cpp_files/user_maths.hpp ****     /**
  53:ACE_ECF_25/Algorithm/user_maths/cpp_files/user_maths.hpp ****      * 最大值
  54:ACE_ECF_25/Algorithm/user_maths/cpp_files/user_maths.hpp ****      */
  55:ACE_ECF_25/Algorithm/user_maths/cpp_files/user_maths.hpp ****     template<class T>
  56:ACE_ECF_25/Algorithm/user_maths/cpp_files/user_maths.hpp ****     T max(T x, T y)
 480              		.loc 2 56 7 is_stmt 1 view -0
 481              		.cfi_startproc
 482              		@ args = 0, pretend = 0, frame = 0
 483              		@ frame_needed = 0, uses_anonymous_args = 0
 484              		@ link register save eliminated.
 485              		.loc 2 56 7 is_stmt 0 view .LVU86
 486 0000 0346     		mov	r3, r0	@ x, tmp117
 487 0002 0846     		mov	r0, r1	@ y, tmp118
 488              	.LVL31:
 489              	@ ACE_ECF_25/Algorithm/user_maths/cpp_files/user_maths.hpp:58:         return x > y ? x : y;
  57:ACE_ECF_25/Algorithm/user_maths/cpp_files/user_maths.hpp ****     {
  58:ACE_ECF_25/Algorithm/user_maths/cpp_files/user_maths.hpp ****         return x > y ? x : y;
 490              		.loc 2 58 22 view .LVU87
 491 0004 8B42     		cmp	r3, r1	@ x, y
 492 0006 00DD     		ble	.L34		@,
 493 0008 1846     		mov	r0, r3	@ y, x
 494              	.L34:
 495              	@ ACE_ECF_25/Algorithm/user_maths/cpp_files/user_maths.hpp:59:     }
  59:ACE_ECF_25/Algorithm/user_maths/cpp_files/user_maths.hpp ****     }
 496              		.loc 2 59 5 discriminator 4 view .LVU88
 497 000a 7047     		bx	lr	@
 498              		.cfi_endproc
 499              	.LFE389:
 500              		.size	_ZN8UserMath3maxIsEET_S1_S1_, .-_ZN8UserMath3maxIsEET_S1_S1_
 501              		.section	.text._ZN8UserMath7max_absEss,"ax",%progbits
 502              		.align	1
 503              		.global	_ZN8UserMath7max_absEss
 504              		.syntax unified
 505              		.thumb
 506              		.thumb_func
ARM GAS  C:\Users\28212\AppData\Local\Temp\cc7dq27q.s 			page 14


 507              		.type	_ZN8UserMath7max_absEss, %function
 508              	_ZN8UserMath7max_absEss:
 509              	.LVL32:
 510              	.LFB377:
  20:ACE_ECF_25/Algorithm/user_maths/cpp_files/user_maths.cpp ****         return max(abs(x), abs(y));
 511              		.loc 1 20 5 is_stmt 1 view -0
 512              		.cfi_startproc
 513              		@ args = 0, pretend = 0, frame = 0
 514              		@ frame_needed = 0, uses_anonymous_args = 0
  20:ACE_ECF_25/Algorithm/user_maths/cpp_files/user_maths.cpp ****         return max(abs(x), abs(y));
 515              		.loc 1 20 5 is_stmt 0 view .LVU90
 516 0000 38B5     		push	{r3, r4, r5, lr}	@
 517              	.LCFI4:
 518              		.cfi_def_cfa_offset 16
 519              		.cfi_offset 3, -16
 520              		.cfi_offset 4, -12
 521              		.cfi_offset 5, -8
 522              		.cfi_offset 14, -4
 523 0002 0D46     		mov	r5, r1	@ y, tmp122
  21:ACE_ECF_25/Algorithm/user_maths/cpp_files/user_maths.cpp ****     }
 524              		.loc 1 21 9 is_stmt 1 view .LVU91
 525              	@ ACE_ECF_25/Algorithm/user_maths/cpp_files/user_maths.cpp:21:         return max(abs(x), abs(y));
  21:ACE_ECF_25/Algorithm/user_maths/cpp_files/user_maths.cpp ****     }
 526              		.loc 1 21 19 is_stmt 0 view .LVU92
 527 0004 FFF7FEFF 		bl	_ZN8UserMath3absIsEET_S1_		@
 528              	.LVL33:
  21:ACE_ECF_25/Algorithm/user_maths/cpp_files/user_maths.cpp ****     }
 529              		.loc 1 21 19 view .LVU93
 530 0008 0446     		mov	r4, r0	@ tmp118, tmp123
 531 000a 2846     		mov	r0, r5	@, y
 532 000c FFF7FEFF 		bl	_ZN8UserMath3absIsEET_S1_		@
 533              	.LVL34:
 534 0010 0146     		mov	r1, r0	@ tmp124,
 535 0012 2046     		mov	r0, r4	@, tmp118
 536 0014 FFF7FEFF 		bl	_ZN8UserMath3maxIsEET_S1_S1_		@
 537              	.LVL35:
 538              	@ ACE_ECF_25/Algorithm/user_maths/cpp_files/user_maths.cpp:22:     }
  22:ACE_ECF_25/Algorithm/user_maths/cpp_files/user_maths.cpp **** 
 539              		.loc 1 22 5 view .LVU94
 540 0018 38BD     		pop	{r3, r4, r5, pc}	@
 541              		.cfi_endproc
 542              	.LFE377:
 543              		.size	_ZN8UserMath7max_absEss, .-_ZN8UserMath7max_absEss
 544              		.section	.text._ZN8UserMath3absIfEET_S1_,"axG",%progbits,_ZN8UserMath3absIfEET_S1_,comdat
 545              		.align	1
 546              		.weak	_ZN8UserMath3absIfEET_S1_
 547              		.syntax unified
 548              		.thumb
 549              		.thumb_func
 550              		.type	_ZN8UserMath3absIfEET_S1_, %function
 551              	_ZN8UserMath3absIfEET_S1_:
 552              	.LVL36:
 553              	.LFB390:
  27:ACE_ECF_25/Algorithm/user_maths/cpp_files/user_maths.hpp ****     {
 554              		.loc 2 27 7 is_stmt 1 view -0
 555              		.cfi_startproc
 556              		@ args = 0, pretend = 0, frame = 0
ARM GAS  C:\Users\28212\AppData\Local\Temp\cc7dq27q.s 			page 15


 557              		@ frame_needed = 0, uses_anonymous_args = 0
 558              		@ link register save eliminated.
 559              	@ ACE_ECF_25/Algorithm/user_maths/cpp_files/user_maths.hpp:29:         return x > 0 ? x : -x;
  29:ACE_ECF_25/Algorithm/user_maths/cpp_files/user_maths.hpp ****     }
 560              		.loc 2 29 22 is_stmt 0 view .LVU96
 561 0000 B5EEC00A 		vcmpe.f32	s0, #0	@ x
 562 0004 F1EE10FA 		vmrs	APSR_nzcv, FPSCR
 563 0008 00DD     		ble	.L39		@,
 564              	.LVL37:
 565              	.L38:
 566              	@ ACE_ECF_25/Algorithm/user_maths/cpp_files/user_maths.hpp:30:     }
  30:ACE_ECF_25/Algorithm/user_maths/cpp_files/user_maths.hpp **** 
 567              		.loc 2 30 5 discriminator 4 view .LVU97
 568 000a 7047     		bx	lr	@
 569              	.LVL38:
 570              	.L39:
 571              	@ ACE_ECF_25/Algorithm/user_maths/cpp_files/user_maths.hpp:29:         return x > 0 ? x : -x;
  29:ACE_ECF_25/Algorithm/user_maths/cpp_files/user_maths.hpp ****     }
 572              		.loc 2 29 22 discriminator 2 view .LVU98
 573 000c B1EE400A 		vneg.f32	s0, s0	@ x, x
 574              	.LVL39:
  29:ACE_ECF_25/Algorithm/user_maths/cpp_files/user_maths.hpp ****     }
 575              		.loc 2 29 22 discriminator 2 view .LVU99
 576 0010 FBE7     		b	.L38		@
 577              		.cfi_endproc
 578              	.LFE390:
 579              		.size	_ZN8UserMath3absIfEET_S1_, .-_ZN8UserMath3absIfEET_S1_
 580              		.section	.text._ZN8UserMath22acceleration_control_c27motion_acceleration_controlEss,"ax",%progbits
 581              		.align	1
 582              		.global	_ZN8UserMath22acceleration_control_c27motion_acceleration_controlEss
 583              		.syntax unified
 584              		.thumb
 585              		.thumb_func
 586              		.type	_ZN8UserMath22acceleration_control_c27motion_acceleration_controlEss, %function
 587              	_ZN8UserMath22acceleration_control_c27motion_acceleration_controlEss:
 588              	.LVL40:
 589              	.LFB378:
  31:ACE_ECF_25/Algorithm/user_maths/cpp_files/user_maths.cpp ****         this->acceleration_control.Input = Input;
 590              		.loc 1 31 5 is_stmt 1 view -0
 591              		.cfi_startproc
 592              		@ args = 0, pretend = 0, frame = 0
 593              		@ frame_needed = 0, uses_anonymous_args = 0
  31:ACE_ECF_25/Algorithm/user_maths/cpp_files/user_maths.cpp ****         this->acceleration_control.Input = Input;
 594              		.loc 1 31 5 is_stmt 0 view .LVU101
 595 0000 10B5     		push	{r4, lr}	@
 596              	.LCFI5:
 597              		.cfi_def_cfa_offset 8
 598              		.cfi_offset 4, -8
 599              		.cfi_offset 14, -4
 600 0002 2DED048B 		vpush.64	{d8, d9}	@
 601              	.LCFI6:
 602              		.cfi_def_cfa_offset 24
 603              		.cfi_offset 80, -24
 604              		.cfi_offset 81, -20
 605              		.cfi_offset 82, -16
 606              		.cfi_offset 83, -12
 607 0006 0446     		mov	r4, r0	@ this, tmp129
ARM GAS  C:\Users\28212\AppData\Local\Temp\cc7dq27q.s 			page 16


 608 0008 08EE101A 		vmov	s16, r1	@ int	@ tmp130, Input
 609 000c 08EE902A 		vmov	s17, r2	@ int	@ tmp131, Limit
  32:ACE_ECF_25/Algorithm/user_maths/cpp_files/user_maths.cpp ****         this->acceleration_control.acc_limit = Limit;
 610              		.loc 1 32 9 is_stmt 1 view .LVU102
 611              	@ ACE_ECF_25/Algorithm/user_maths/cpp_files/user_maths.cpp:32:         this->acceleration_control.I
  32:ACE_ECF_25/Algorithm/user_maths/cpp_files/user_maths.cpp ****         this->acceleration_control.acc_limit = Limit;
 612              		.loc 1 32 42 is_stmt 0 view .LVU103
 613 0010 B8EEC88A 		vcvt.f32.s32	s16, s16	@ _1, tmp130
 614 0014 80ED008A 		vstr.32	s16, [r0]	@ _1, this_13(D)->acceleration_control.Input
  33:ACE_ECF_25/Algorithm/user_maths/cpp_files/user_maths.cpp **** 
 615              		.loc 1 33 9 is_stmt 1 view .LVU104
 616              	@ ACE_ECF_25/Algorithm/user_maths/cpp_files/user_maths.cpp:33:         this->acceleration_control.a
  33:ACE_ECF_25/Algorithm/user_maths/cpp_files/user_maths.cpp **** 
 617              		.loc 1 33 46 is_stmt 0 view .LVU105
 618 0018 F8EEE88A 		vcvt.f32.s32	s17, s17	@ _2, tmp131
 619 001c C0ED048A 		vstr.32	s17, [r0, #16]	@ _2, this_13(D)->acceleration_control.acc_limit
  35:ACE_ECF_25/Algorithm/user_maths/cpp_files/user_maths.cpp **** 
 620              		.loc 1 35 9 is_stmt 1 view .LVU106
 621              	@ ACE_ECF_25/Algorithm/user_maths/cpp_files/user_maths.cpp:35:         this->acceleration_control.a
  35:ACE_ECF_25/Algorithm/user_maths/cpp_files/user_maths.cpp **** 
 622              		.loc 1 35 108 is_stmt 0 view .LVU107
 623 0020 90ED019A 		vldr.32	s18, [r0, #4]	@ _3, this_13(D)->acceleration_control.Last_Input
 624              	@ ACE_ECF_25/Algorithm/user_maths/cpp_files/user_maths.cpp:35:         this->acceleration_control.a
  35:ACE_ECF_25/Algorithm/user_maths/cpp_files/user_maths.cpp **** 
 625              		.loc 1 35 79 view .LVU108
 626 0024 38EE498A 		vsub.f32	s16, s16, s18	@ _4, _1, _3
 627              	@ ACE_ECF_25/Algorithm/user_maths/cpp_files/user_maths.cpp:35:         this->acceleration_control.a
  35:ACE_ECF_25/Algorithm/user_maths/cpp_files/user_maths.cpp **** 
 628              		.loc 1 35 44 view .LVU109
 629 0028 80ED038A 		vstr.32	s16, [r0, #12]	@ _4, this_13(D)->acceleration_control.acc_now
  37:ACE_ECF_25/Algorithm/user_maths/cpp_files/user_maths.cpp ****         {
 630              		.loc 1 37 9 is_stmt 1 view .LVU110
 631              	@ ACE_ECF_25/Algorithm/user_maths/cpp_files/user_maths.cpp:37:         if (abs(this->acceleration_c
  37:ACE_ECF_25/Algorithm/user_maths/cpp_files/user_maths.cpp ****         {
 632              		.loc 1 37 16 is_stmt 0 view .LVU111
 633 002c B0EE480A 		vmov.f32	s0, s16	@, _4
 634 0030 FFF7FEFF 		bl	_ZN8UserMath3absIfEET_S1_		@
 635              	.LVL41:
 636              	@ ACE_ECF_25/Algorithm/user_maths/cpp_files/user_maths.cpp:37:         if (abs(this->acceleration_c
  37:ACE_ECF_25/Algorithm/user_maths/cpp_files/user_maths.cpp ****         {
 637              		.loc 1 37 9 view .LVU112
 638 0034 F4EEC08A 		vcmpe.f32	s17, s0	@ _2, _5
 639 0038 F1EE10FA 		vmrs	APSR_nzcv, FPSCR
 640 003c 07D5     		bpl	.L41		@,
  39:ACE_ECF_25/Algorithm/user_maths/cpp_files/user_maths.cpp ****         }
 641              		.loc 1 39 13 is_stmt 1 view .LVU113
 642              	@ ACE_ECF_25/Algorithm/user_maths/cpp_files/user_maths.cpp:39:             this->acceleration_contr
  39:ACE_ECF_25/Algorithm/user_maths/cpp_files/user_maths.cpp ****         }
 643              		.loc 1 39 124 is_stmt 0 view .LVU114
 644 003e C8EE007A 		vdiv.f32	s15, s16, s0	@ _6, _4, _5
 645              	@ ACE_ECF_25/Algorithm/user_maths/cpp_files/user_maths.cpp:39:             this->acceleration_contr
  39:ACE_ECF_25/Algorithm/user_maths/cpp_files/user_maths.cpp ****         }
 646              		.loc 1 39 166 view .LVU115
 647 0042 68EEA78A 		vmul.f32	s17, s17, s15	@ _7, _2, _6
 648              	@ ACE_ECF_25/Algorithm/user_maths/cpp_files/user_maths.cpp:39:             this->acceleration_contr
  39:ACE_ECF_25/Algorithm/user_maths/cpp_files/user_maths.cpp ****         }
 649              		.loc 1 39 87 view .LVU116
ARM GAS  C:\Users\28212\AppData\Local\Temp\cc7dq27q.s 			page 17


 650 0046 79EE288A 		vadd.f32	s17, s18, s17	@ _8, _3, _7
 651              	@ ACE_ECF_25/Algorithm/user_maths/cpp_files/user_maths.cpp:39:             this->acceleration_contr
  39:ACE_ECF_25/Algorithm/user_maths/cpp_files/user_maths.cpp ****         }
 652              		.loc 1 39 47 view .LVU117
 653 004a C4ED028A 		vstr.32	s17, [r4, #8]	@ _8, this_13(D)->acceleration_control.Output
 654              	.L41:
  42:ACE_ECF_25/Algorithm/user_maths/cpp_files/user_maths.cpp **** 
 655              		.loc 1 42 9 is_stmt 1 view .LVU118
 656              	@ ACE_ECF_25/Algorithm/user_maths/cpp_files/user_maths.cpp:42:         this->acceleration_control.L
  42:ACE_ECF_25/Algorithm/user_maths/cpp_files/user_maths.cpp **** 
 657              		.loc 1 42 76 is_stmt 0 view .LVU119
 658 004e D4ED027A 		vldr.32	s15, [r4, #8]	@ _9, this_13(D)->acceleration_control.Output
 659              	@ ACE_ECF_25/Algorithm/user_maths/cpp_files/user_maths.cpp:42:         this->acceleration_control.L
  42:ACE_ECF_25/Algorithm/user_maths/cpp_files/user_maths.cpp **** 
 660              		.loc 1 42 47 view .LVU120
 661 0052 C4ED017A 		vstr.32	s15, [r4, #4]	@ _9, this_13(D)->acceleration_control.Last_Input
  44:ACE_ECF_25/Algorithm/user_maths/cpp_files/user_maths.cpp ****     }
 662              		.loc 1 44 9 is_stmt 1 view .LVU121
 663              	@ ACE_ECF_25/Algorithm/user_maths/cpp_files/user_maths.cpp:44:         return this->acceleration_co
  44:ACE_ECF_25/Algorithm/user_maths/cpp_files/user_maths.cpp ****     }
 664              		.loc 1 44 43 is_stmt 0 view .LVU122
 665 0056 FDEEE77A 		vcvt.s32.f32	s15, s15	@ tmp127, _9
 666              	@ ACE_ECF_25/Algorithm/user_maths/cpp_files/user_maths.cpp:45:     }
  45:ACE_ECF_25/Algorithm/user_maths/cpp_files/user_maths.cpp **** 
 667              		.loc 1 45 5 view .LVU123
 668 005a 17EE903A 		vmov	r3, s15	@ int	@ tmp127, tmp127
 669 005e 18B2     		sxth	r0, r3	@, tmp127
 670 0060 BDEC048B 		vldm	sp!, {d8-d9}	@,
 671              	.LCFI7:
 672              		.cfi_restore 82
 673              		.cfi_restore 83
 674              		.cfi_restore 80
 675              		.cfi_restore 81
 676              		.cfi_def_cfa_offset 8
 677 0064 10BD     		pop	{r4, pc}	@
  45:ACE_ECF_25/Algorithm/user_maths/cpp_files/user_maths.cpp **** 
 678              		.loc 1 45 5 view .LVU124
 679              		.cfi_endproc
 680              	.LFE378:
 681              		.size	_ZN8UserMath22acceleration_control_c27motion_acceleration_controlEss, .-_ZN8UserMath22accele
 682              		.section	.text._ZN8UserMath22loop_restriction_floatEff,"ax",%progbits
 683              		.align	1
 684              		.global	_ZN8UserMath22loop_restriction_floatEff
 685              		.syntax unified
 686              		.thumb
 687              		.thumb_func
 688              		.type	_ZN8UserMath22loop_restriction_floatEff, %function
 689              	_ZN8UserMath22loop_restriction_floatEff:
 690              	.LVL42:
 691              	.LFB380:
  72:ACE_ECF_25/Algorithm/user_maths/cpp_files/user_maths.cpp ****         if (abs(num) > limit_num)
 692              		.loc 1 72 5 is_stmt 1 view -0
 693              		.cfi_startproc
 694              		@ args = 0, pretend = 0, frame = 0
 695              		@ frame_needed = 0, uses_anonymous_args = 0
  72:ACE_ECF_25/Algorithm/user_maths/cpp_files/user_maths.cpp ****         if (abs(num) > limit_num)
 696              		.loc 1 72 5 is_stmt 0 view .LVU126
ARM GAS  C:\Users\28212\AppData\Local\Temp\cc7dq27q.s 			page 18


 697 0000 08B5     		push	{r3, lr}	@
 698              	.LCFI8:
 699              		.cfi_def_cfa_offset 8
 700              		.cfi_offset 3, -8
 701              		.cfi_offset 14, -4
 702 0002 2DED028B 		vpush.64	{d8}	@
 703              	.LCFI9:
 704              		.cfi_def_cfa_offset 16
 705              		.cfi_offset 80, -16
 706              		.cfi_offset 81, -12
 707 0006 B0EE408A 		vmov.f32	s16, s0	@ num, tmp119
 708 000a F0EE608A 		vmov.f32	s17, s1	@ limit_num, tmp120
  73:ACE_ECF_25/Algorithm/user_maths/cpp_files/user_maths.cpp ****         {
 709              		.loc 1 73 9 is_stmt 1 view .LVU127
 710              	@ ACE_ECF_25/Algorithm/user_maths/cpp_files/user_maths.cpp:73:         if (abs(num) > limit_num)
  73:ACE_ECF_25/Algorithm/user_maths/cpp_files/user_maths.cpp ****         {
 711              		.loc 1 73 16 is_stmt 0 view .LVU128
 712 000e FFF7FEFF 		bl	_ZN8UserMath3absIfEET_S1_		@
 713              	.LVL43:
 714              	@ ACE_ECF_25/Algorithm/user_maths/cpp_files/user_maths.cpp:73:         if (abs(num) > limit_num)
  73:ACE_ECF_25/Algorithm/user_maths/cpp_files/user_maths.cpp ****         {
 715              		.loc 1 73 9 view .LVU129
 716 0012 B4EEE80A 		vcmpe.f32	s0, s17	@ tmp121, limit_num
 717 0016 F1EE10FA 		vmrs	APSR_nzcv, FPSCR
 718 001a 06DD     		ble	.L46		@,
  75:ACE_ECF_25/Algorithm/user_maths/cpp_files/user_maths.cpp ****                 num -= limit_num;
 719              		.loc 1 75 13 is_stmt 1 view .LVU130
 720 001c B5EEC08A 		vcmpe.f32	s16, #0	@ num
 721 0020 F1EE10FA 		vmrs	APSR_nzcv, FPSCR
 722 0024 06DB     		blt	.L52		@,
  76:ACE_ECF_25/Algorithm/user_maths/cpp_files/user_maths.cpp ****             else
 723              		.loc 1 76 17 view .LVU131
 724              	@ ACE_ECF_25/Algorithm/user_maths/cpp_files/user_maths.cpp:76:                 num -= limit_num;
  76:ACE_ECF_25/Algorithm/user_maths/cpp_files/user_maths.cpp ****             else
 725              		.loc 1 76 21 is_stmt 0 view .LVU132
 726 0026 38EE688A 		vsub.f32	s16, s16, s17	@ num, num, limit_num
 727              	.LVL44:
 728              	.L46:
  80:ACE_ECF_25/Algorithm/user_maths/cpp_files/user_maths.cpp ****     }
 729              		.loc 1 80 9 is_stmt 1 view .LVU133
 730              	@ ACE_ECF_25/Algorithm/user_maths/cpp_files/user_maths.cpp:81:     }
  81:ACE_ECF_25/Algorithm/user_maths/cpp_files/user_maths.cpp **** 
 731              		.loc 1 81 5 is_stmt 0 view .LVU134
 732 002a B0EE480A 		vmov.f32	s0, s16	@, num
 733 002e BDEC028B 		vldm	sp!, {d8}	@
 734              	.LCFI10:
 735              		.cfi_remember_state
 736              		.cfi_restore 80
 737              		.cfi_restore 81
 738              		.cfi_def_cfa_offset 8
 739              	.LVL45:
  81:ACE_ECF_25/Algorithm/user_maths/cpp_files/user_maths.cpp **** 
 740              		.loc 1 81 5 view .LVU135
 741 0032 08BD     		pop	{r3, pc}	@
 742              	.LVL46:
 743              	.L52:
 744              	.LCFI11:
ARM GAS  C:\Users\28212\AppData\Local\Temp\cc7dq27q.s 			page 19


 745              		.cfi_restore_state
  78:ACE_ECF_25/Algorithm/user_maths/cpp_files/user_maths.cpp ****         }
 746              		.loc 1 78 17 is_stmt 1 view .LVU136
 747              	@ ACE_ECF_25/Algorithm/user_maths/cpp_files/user_maths.cpp:78:                 num += limit_num;
  78:ACE_ECF_25/Algorithm/user_maths/cpp_files/user_maths.cpp ****         }
 748              		.loc 1 78 21 is_stmt 0 view .LVU137
 749 0034 38EE288A 		vadd.f32	s16, s16, s17	@ num, num, limit_num
 750              	.LVL47:
  78:ACE_ECF_25/Algorithm/user_maths/cpp_files/user_maths.cpp ****         }
 751              		.loc 1 78 21 view .LVU138
 752 0038 F7E7     		b	.L46		@
 753              		.cfi_endproc
 754              	.LFE380:
 755              		.size	_ZN8UserMath22loop_restriction_floatEff, .-_ZN8UserMath22loop_restriction_floatEff
 756              		.section	.text._ZN8UserMath13sin_calculateEf,"ax",%progbits
 757              		.align	1
 758              		.global	_ZN8UserMath13sin_calculateEf
 759              		.syntax unified
 760              		.thumb
 761              		.thumb_func
 762              		.type	_ZN8UserMath13sin_calculateEf, %function
 763              	_ZN8UserMath13sin_calculateEf:
 764              	.LVL48:
 765              	.LFB384:
 130:ACE_ECF_25/Algorithm/user_maths/cpp_files/user_maths.cpp **** 
 131:ACE_ECF_25/Algorithm/user_maths/cpp_files/user_maths.cpp ****     // sin函数查表法
 132:ACE_ECF_25/Algorithm/user_maths/cpp_files/user_maths.cpp ****     float sin_calculate(float angle)
 133:ACE_ECF_25/Algorithm/user_maths/cpp_files/user_maths.cpp ****     {
 766              		.loc 1 133 5 is_stmt 1 view -0
 767              		.cfi_startproc
 768              		@ args = 0, pretend = 0, frame = 0
 769              		@ frame_needed = 0, uses_anonymous_args = 0
 770              		.loc 1 133 5 is_stmt 0 view .LVU140
 771 0000 08B5     		push	{r3, lr}	@
 772              	.LCFI12:
 773              		.cfi_def_cfa_offset 8
 774              		.cfi_offset 3, -8
 775              		.cfi_offset 14, -4
 134:ACE_ECF_25/Algorithm/user_maths/cpp_files/user_maths.cpp ****         float sin_angle = 0.0f;
 776              		.loc 1 134 9 is_stmt 1 view .LVU141
 777              	.LVL49:
 135:ACE_ECF_25/Algorithm/user_maths/cpp_files/user_maths.cpp **** 
 136:ACE_ECF_25/Algorithm/user_maths/cpp_files/user_maths.cpp ****         if (angle >= 0.0f && angle < 90.0f)
 778              		.loc 1 136 9 view .LVU142
 779 0002 B5EEC00A 		vcmpe.f32	s0, #0	@ angle
 780 0006 F1EE10FA 		vmrs	APSR_nzcv, FPSCR
 781 000a 1ADB     		blt	.L55		@,
 782              	@ ACE_ECF_25/Algorithm/user_maths/cpp_files/user_maths.cpp:136:         if (angle >= 0.0f && angle 
 783              		.loc 1 136 27 is_stmt 0 discriminator 1 view .LVU143
 784 000c DFED4A7A 		vldr.32	s15, .L81	@ tmp138,
 785 0010 B4EEE70A 		vcmpe.f32	s0, s15	@ angle, tmp138
 786 0014 F1EE10FA 		vmrs	APSR_nzcv, FPSCR
 787 0018 13D5     		bpl	.L55		@,
 137:ACE_ECF_25/Algorithm/user_maths/cpp_files/user_maths.cpp ****             sin_angle = (Trigonometric_Functions[(int) (abs(angle) * 10.0f)] / 100.0f);
 788              		.loc 1 137 13 is_stmt 1 view .LVU144
 789              	@ ACE_ECF_25/Algorithm/user_maths/cpp_files/user_maths.cpp:137:             sin_angle = (Trigonomet
 790              		.loc 1 137 60 is_stmt 0 view .LVU145
ARM GAS  C:\Users\28212\AppData\Local\Temp\cc7dq27q.s 			page 20


 791 001a FFF7FEFF 		bl	_ZN8UserMath3absIfEET_S1_		@
 792              	.LVL50:
 793              	@ ACE_ECF_25/Algorithm/user_maths/cpp_files/user_maths.cpp:137:             sin_angle = (Trigonomet
 794              		.loc 1 137 68 view .LVU146
 795 001e F2EE047A 		vmov.f32	s15, #1.0e+1	@ tmp139,
 796 0022 20EE270A 		vmul.f32	s0, s0, s15	@ _2, tmp174, tmp139
 797              	@ ACE_ECF_25/Algorithm/user_maths/cpp_files/user_maths.cpp:137:             sin_angle = (Trigonomet
 798              		.loc 1 137 50 view .LVU147
 799 0026 BDEEC00A 		vcvt.s32.f32	s0, s0	@ _3, _2
 800              	@ ACE_ECF_25/Algorithm/user_maths/cpp_files/user_maths.cpp:137:             sin_angle = (Trigonomet
 801              		.loc 1 137 76 view .LVU148
 802 002a 444B     		ldr	r3, .L81+4	@ tmp140,
 803 002c 10EE102A 		vmov	r2, s0	@ int	@ _3, _3
 804 0030 03EB8203 		add	r3, r3, r2, lsl #2	@ tmp142, tmp140, _3,
 805 0034 93ED007A 		vldr.32	s14, [r3]	@ _4, Trigonometric_Functions[_3]
 806              	@ ACE_ECF_25/Algorithm/user_maths/cpp_files/user_maths.cpp:137:             sin_angle = (Trigonomet
 807              		.loc 1 137 23 view .LVU149
 808 0038 DFED417A 		vldr.32	s15, .L81+8	@ tmp143,
 809 003c 87EE270A 		vdiv.f32	s0, s14, s15	@ <retval>, _4, tmp143
 810              	.LVL51:
 811              	.L54:
 812              	@ ACE_ECF_25/Algorithm/user_maths/cpp_files/user_maths.cpp:148:     }
 138:ACE_ECF_25/Algorithm/user_maths/cpp_files/user_maths.cpp ****         else if (angle >= 90.0f && angle < 180.f)
 139:ACE_ECF_25/Algorithm/user_maths/cpp_files/user_maths.cpp ****             sin_angle = (Trigonometric_Functions[(int) (abs(180.0f - angle) * 10.0f)] / 100.0f);
 140:ACE_ECF_25/Algorithm/user_maths/cpp_files/user_maths.cpp ****         else if (angle >= -180.0f && angle < -90.f)
 141:ACE_ECF_25/Algorithm/user_maths/cpp_files/user_maths.cpp ****             sin_angle = -(Trigonometric_Functions[(int) (abs(180.0f + angle) * 10.0f)] / 100.0f);
 142:ACE_ECF_25/Algorithm/user_maths/cpp_files/user_maths.cpp ****         else if (angle >= -90.0f && angle < 0.f)
 143:ACE_ECF_25/Algorithm/user_maths/cpp_files/user_maths.cpp ****             sin_angle = -(Trigonometric_Functions[(int) (abs(180.0f - (180.0f + angle)) * 10.0f)] /
 144:ACE_ECF_25/Algorithm/user_maths/cpp_files/user_maths.cpp ****         else if (angle == 180.f)
 145:ACE_ECF_25/Algorithm/user_maths/cpp_files/user_maths.cpp ****             sin_angle = 0.0f;
 146:ACE_ECF_25/Algorithm/user_maths/cpp_files/user_maths.cpp **** 
 147:ACE_ECF_25/Algorithm/user_maths/cpp_files/user_maths.cpp ****         return sin_angle;
 148:ACE_ECF_25/Algorithm/user_maths/cpp_files/user_maths.cpp ****     }
 813              		.loc 1 148 5 view .LVU150
 814 0040 08BD     		pop	{r3, pc}	@
 815              	.LVL52:
 816              	.L55:
 138:ACE_ECF_25/Algorithm/user_maths/cpp_files/user_maths.cpp ****         else if (angle >= 90.0f && angle < 180.f)
 817              		.loc 1 138 14 is_stmt 1 view .LVU151
 818 0042 DFED3D7A 		vldr.32	s15, .L81	@ tmp144,
 819 0046 B4EEE70A 		vcmpe.f32	s0, s15	@ angle, tmp144
 820 004a F1EE10FA 		vmrs	APSR_nzcv, FPSCR
 821 004e 1CDB     		blt	.L59		@,
 822              	@ ACE_ECF_25/Algorithm/user_maths/cpp_files/user_maths.cpp:138:         else if (angle >= 90.0f && 
 138:ACE_ECF_25/Algorithm/user_maths/cpp_files/user_maths.cpp ****         else if (angle >= 90.0f && angle < 180.f)
 823              		.loc 1 138 33 is_stmt 0 discriminator 1 view .LVU152
 824 0050 DFED3C7A 		vldr.32	s15, .L81+12	@ tmp145,
 825 0054 B4EEE70A 		vcmpe.f32	s0, s15	@ angle, tmp145
 826 0058 F1EE10FA 		vmrs	APSR_nzcv, FPSCR
 827 005c 15D5     		bpl	.L59		@,
 139:ACE_ECF_25/Algorithm/user_maths/cpp_files/user_maths.cpp ****         else if (angle >= -180.0f && angle < -90.f)
 828              		.loc 1 139 13 is_stmt 1 view .LVU153
 829              	@ ACE_ECF_25/Algorithm/user_maths/cpp_files/user_maths.cpp:139:             sin_angle = (Trigonomet
 139:ACE_ECF_25/Algorithm/user_maths/cpp_files/user_maths.cpp ****         else if (angle >= -180.0f && angle < -90.f)
 830              		.loc 1 139 60 is_stmt 0 view .LVU154
 831 005e 37EEC00A 		vsub.f32	s0, s15, s0	@, tmp147, angle
 832              	.LVL53:
ARM GAS  C:\Users\28212\AppData\Local\Temp\cc7dq27q.s 			page 21


 139:ACE_ECF_25/Algorithm/user_maths/cpp_files/user_maths.cpp ****         else if (angle >= -180.0f && angle < -90.f)
 833              		.loc 1 139 60 view .LVU155
 834 0062 FFF7FEFF 		bl	_ZN8UserMath3absIfEET_S1_		@
 835              	.LVL54:
 836              	@ ACE_ECF_25/Algorithm/user_maths/cpp_files/user_maths.cpp:139:             sin_angle = (Trigonomet
 139:ACE_ECF_25/Algorithm/user_maths/cpp_files/user_maths.cpp ****         else if (angle >= -180.0f && angle < -90.f)
 837              		.loc 1 139 77 view .LVU156
 838 0066 F2EE047A 		vmov.f32	s15, #1.0e+1	@ tmp148,
 839 006a 20EE270A 		vmul.f32	s0, s0, s15	@ _7, tmp175, tmp148
 840              	@ ACE_ECF_25/Algorithm/user_maths/cpp_files/user_maths.cpp:139:             sin_angle = (Trigonomet
 139:ACE_ECF_25/Algorithm/user_maths/cpp_files/user_maths.cpp ****         else if (angle >= -180.0f && angle < -90.f)
 841              		.loc 1 139 50 view .LVU157
 842 006e BDEEC00A 		vcvt.s32.f32	s0, s0	@ _8, _7
 843              	@ ACE_ECF_25/Algorithm/user_maths/cpp_files/user_maths.cpp:139:             sin_angle = (Trigonomet
 139:ACE_ECF_25/Algorithm/user_maths/cpp_files/user_maths.cpp ****         else if (angle >= -180.0f && angle < -90.f)
 844              		.loc 1 139 85 view .LVU158
 845 0072 324B     		ldr	r3, .L81+4	@ tmp149,
 846 0074 10EE102A 		vmov	r2, s0	@ int	@ _8, _8
 847 0078 03EB8203 		add	r3, r3, r2, lsl #2	@ tmp151, tmp149, _8,
 848 007c 93ED007A 		vldr.32	s14, [r3]	@ _9, Trigonometric_Functions[_8]
 849              	@ ACE_ECF_25/Algorithm/user_maths/cpp_files/user_maths.cpp:139:             sin_angle = (Trigonomet
 139:ACE_ECF_25/Algorithm/user_maths/cpp_files/user_maths.cpp ****         else if (angle >= -180.0f && angle < -90.f)
 850              		.loc 1 139 23 view .LVU159
 851 0080 DFED2F7A 		vldr.32	s15, .L81+8	@ tmp152,
 852 0084 87EE270A 		vdiv.f32	s0, s14, s15	@ <retval>, _9, tmp152
 853              	.LVL55:
 139:ACE_ECF_25/Algorithm/user_maths/cpp_files/user_maths.cpp ****         else if (angle >= -180.0f && angle < -90.f)
 854              		.loc 1 139 23 view .LVU160
 855 0088 DAE7     		b	.L54		@
 856              	.LVL56:
 857              	.L59:
 140:ACE_ECF_25/Algorithm/user_maths/cpp_files/user_maths.cpp ****             sin_angle = -(Trigonometric_Functions[(int) (abs(180.0f + angle) * 10.0f)] / 100.0f);
 858              		.loc 1 140 14 is_stmt 1 view .LVU161
 859 008a DFED2F7A 		vldr.32	s15, .L81+16	@ tmp153,
 860 008e B4EEE70A 		vcmpe.f32	s0, s15	@ angle, tmp153
 861 0092 F1EE10FA 		vmrs	APSR_nzcv, FPSCR
 862 0096 20DB     		blt	.L62		@,
 863              	@ ACE_ECF_25/Algorithm/user_maths/cpp_files/user_maths.cpp:140:         else if (angle >= -180.0f &
 140:ACE_ECF_25/Algorithm/user_maths/cpp_files/user_maths.cpp ****             sin_angle = -(Trigonometric_Functions[(int) (abs(180.0f + angle) * 10.0f)] / 100.0f);
 864              		.loc 1 140 35 is_stmt 0 discriminator 1 view .LVU162
 865 0098 DFED2C7A 		vldr.32	s15, .L81+20	@ tmp154,
 866 009c B4EEE70A 		vcmpe.f32	s0, s15	@ angle, tmp154
 867 00a0 F1EE10FA 		vmrs	APSR_nzcv, FPSCR
 868 00a4 19D5     		bpl	.L62		@,
 141:ACE_ECF_25/Algorithm/user_maths/cpp_files/user_maths.cpp ****         else if (angle >= -90.0f && angle < 0.f)
 869              		.loc 1 141 13 is_stmt 1 view .LVU163
 870              	@ ACE_ECF_25/Algorithm/user_maths/cpp_files/user_maths.cpp:141:             sin_angle = -(Trigonome
 141:ACE_ECF_25/Algorithm/user_maths/cpp_files/user_maths.cpp ****         else if (angle >= -90.0f && angle < 0.f)
 871              		.loc 1 141 61 is_stmt 0 view .LVU164
 872 00a6 DFED277A 		vldr.32	s15, .L81+12	@ tmp156,
 873 00aa 30EE270A 		vadd.f32	s0, s0, s15	@, angle, tmp156
 874              	.LVL57:
 141:ACE_ECF_25/Algorithm/user_maths/cpp_files/user_maths.cpp ****         else if (angle >= -90.0f && angle < 0.f)
 875              		.loc 1 141 61 view .LVU165
 876 00ae FFF7FEFF 		bl	_ZN8UserMath3absIfEET_S1_		@
 877              	.LVL58:
 878              	@ ACE_ECF_25/Algorithm/user_maths/cpp_files/user_maths.cpp:141:             sin_angle = -(Trigonome
ARM GAS  C:\Users\28212\AppData\Local\Temp\cc7dq27q.s 			page 22


 141:ACE_ECF_25/Algorithm/user_maths/cpp_files/user_maths.cpp ****         else if (angle >= -90.0f && angle < 0.f)
 879              		.loc 1 141 78 view .LVU166
 880 00b2 F2EE047A 		vmov.f32	s15, #1.0e+1	@ tmp157,
 881 00b6 20EE270A 		vmul.f32	s0, s0, s15	@ _12, tmp176, tmp157
 882              	@ ACE_ECF_25/Algorithm/user_maths/cpp_files/user_maths.cpp:141:             sin_angle = -(Trigonome
 141:ACE_ECF_25/Algorithm/user_maths/cpp_files/user_maths.cpp ****         else if (angle >= -90.0f && angle < 0.f)
 883              		.loc 1 141 51 view .LVU167
 884 00ba BDEEC00A 		vcvt.s32.f32	s0, s0	@ _13, _12
 885              	@ ACE_ECF_25/Algorithm/user_maths/cpp_files/user_maths.cpp:141:             sin_angle = -(Trigonome
 141:ACE_ECF_25/Algorithm/user_maths/cpp_files/user_maths.cpp ****         else if (angle >= -90.0f && angle < 0.f)
 886              		.loc 1 141 86 view .LVU168
 887 00be 1F4B     		ldr	r3, .L81+4	@ tmp158,
 888 00c0 10EE102A 		vmov	r2, s0	@ int	@ _13, _13
 889 00c4 03EB8203 		add	r3, r3, r2, lsl #2	@ tmp160, tmp158, _13,
 890 00c8 93ED007A 		vldr.32	s14, [r3]	@ _14, Trigonometric_Functions[_13]
 891              	@ ACE_ECF_25/Algorithm/user_maths/cpp_files/user_maths.cpp:141:             sin_angle = -(Trigonome
 141:ACE_ECF_25/Algorithm/user_maths/cpp_files/user_maths.cpp ****         else if (angle >= -90.0f && angle < 0.f)
 892              		.loc 1 141 88 view .LVU169
 893 00cc DFED1C7A 		vldr.32	s15, .L81+8	@ tmp161,
 894 00d0 87EE270A 		vdiv.f32	s0, s14, s15	@ _15, _14, tmp161
 895              	@ ACE_ECF_25/Algorithm/user_maths/cpp_files/user_maths.cpp:141:             sin_angle = -(Trigonome
 141:ACE_ECF_25/Algorithm/user_maths/cpp_files/user_maths.cpp ****         else if (angle >= -90.0f && angle < 0.f)
 896              		.loc 1 141 23 view .LVU170
 897 00d4 B1EE400A 		vneg.f32	s0, s0	@ <retval>, _15
 898              	.LVL59:
 141:ACE_ECF_25/Algorithm/user_maths/cpp_files/user_maths.cpp ****         else if (angle >= -90.0f && angle < 0.f)
 899              		.loc 1 141 23 view .LVU171
 900 00d8 B2E7     		b	.L54		@
 901              	.LVL60:
 902              	.L62:
 142:ACE_ECF_25/Algorithm/user_maths/cpp_files/user_maths.cpp ****             sin_angle = -(Trigonometric_Functions[(int) (abs(180.0f - (180.0f + angle)) * 10.0f)] /
 903              		.loc 1 142 14 is_stmt 1 view .LVU172
 904 00da DFED1C7A 		vldr.32	s15, .L81+20	@ tmp162,
 905 00de B4EEE70A 		vcmpe.f32	s0, s15	@ angle, tmp162
 906 00e2 F1EE10FA 		vmrs	APSR_nzcv, FPSCR
 907 00e6 23DB     		blt	.L77		@,
 908              	@ ACE_ECF_25/Algorithm/user_maths/cpp_files/user_maths.cpp:142:         else if (angle >= -90.0f &&
 142:ACE_ECF_25/Algorithm/user_maths/cpp_files/user_maths.cpp ****             sin_angle = -(Trigonometric_Functions[(int) (abs(180.0f - (180.0f + angle)) * 10.0f)] /
 909              		.loc 1 142 34 is_stmt 0 discriminator 1 view .LVU173
 910 00e8 B5EEC00A 		vcmpe.f32	s0, #0	@ angle
 911 00ec F1EE10FA 		vmrs	APSR_nzcv, FPSCR
 912 00f0 02D4     		bmi	.L80		@,
 913              	@ ACE_ECF_25/Algorithm/user_maths/cpp_files/user_maths.cpp:134:         float sin_angle = 0.0f;
 134:ACE_ECF_25/Algorithm/user_maths/cpp_files/user_maths.cpp **** 
 914              		.loc 1 134 15 view .LVU174
 915 00f2 9FED170A 		vldr.32	s0, .L81+24	@ <retval>,
 916              	.LVL61:
 147:ACE_ECF_25/Algorithm/user_maths/cpp_files/user_maths.cpp ****     }
 917              		.loc 1 147 9 is_stmt 1 view .LVU175
 918              	@ ACE_ECF_25/Algorithm/user_maths/cpp_files/user_maths.cpp:147:         return sin_angle;
 147:ACE_ECF_25/Algorithm/user_maths/cpp_files/user_maths.cpp ****     }
 919              		.loc 1 147 16 is_stmt 0 view .LVU176
 920 00f6 A3E7     		b	.L54		@
 921              	.LVL62:
 922              	.L80:
 143:ACE_ECF_25/Algorithm/user_maths/cpp_files/user_maths.cpp ****         else if (angle == 180.f)
 923              		.loc 1 143 13 is_stmt 1 view .LVU177
ARM GAS  C:\Users\28212\AppData\Local\Temp\cc7dq27q.s 			page 23


 924              	@ ACE_ECF_25/Algorithm/user_maths/cpp_files/user_maths.cpp:143:             sin_angle = -(Trigonome
 143:ACE_ECF_25/Algorithm/user_maths/cpp_files/user_maths.cpp ****         else if (angle == 180.f)
 925              		.loc 1 143 79 is_stmt 0 view .LVU178
 926 00f8 DFED127A 		vldr.32	s15, .L81+12	@ tmp164,
 927 00fc 30EE270A 		vadd.f32	s0, s0, s15	@ _16, angle, tmp164
 928              	.LVL63:
 929              	@ ACE_ECF_25/Algorithm/user_maths/cpp_files/user_maths.cpp:143:             sin_angle = -(Trigonome
 143:ACE_ECF_25/Algorithm/user_maths/cpp_files/user_maths.cpp ****         else if (angle == 180.f)
 930              		.loc 1 143 61 view .LVU179
 931 0100 37EEC00A 		vsub.f32	s0, s15, s0	@, tmp164, _16
 932 0104 FFF7FEFF 		bl	_ZN8UserMath3absIfEET_S1_		@
 933              	.LVL64:
 934              	@ ACE_ECF_25/Algorithm/user_maths/cpp_files/user_maths.cpp:143:             sin_angle = -(Trigonome
 143:ACE_ECF_25/Algorithm/user_maths/cpp_files/user_maths.cpp ****         else if (angle == 180.f)
 935              		.loc 1 143 89 view .LVU180
 936 0108 F2EE047A 		vmov.f32	s15, #1.0e+1	@ tmp167,
 937 010c 20EE270A 		vmul.f32	s0, s0, s15	@ _19, tmp177, tmp167
 938              	@ ACE_ECF_25/Algorithm/user_maths/cpp_files/user_maths.cpp:143:             sin_angle = -(Trigonome
 143:ACE_ECF_25/Algorithm/user_maths/cpp_files/user_maths.cpp ****         else if (angle == 180.f)
 939              		.loc 1 143 51 view .LVU181
 940 0110 BDEEC00A 		vcvt.s32.f32	s0, s0	@ _20, _19
 941              	@ ACE_ECF_25/Algorithm/user_maths/cpp_files/user_maths.cpp:143:             sin_angle = -(Trigonome
 143:ACE_ECF_25/Algorithm/user_maths/cpp_files/user_maths.cpp ****         else if (angle == 180.f)
 942              		.loc 1 143 97 view .LVU182
 943 0114 094B     		ldr	r3, .L81+4	@ tmp168,
 944 0116 10EE102A 		vmov	r2, s0	@ int	@ _20, _20
 945 011a 03EB8203 		add	r3, r3, r2, lsl #2	@ tmp170, tmp168, _20,
 946 011e 93ED007A 		vldr.32	s14, [r3]	@ _21, Trigonometric_Functions[_20]
 947              	@ ACE_ECF_25/Algorithm/user_maths/cpp_files/user_maths.cpp:143:             sin_angle = -(Trigonome
 143:ACE_ECF_25/Algorithm/user_maths/cpp_files/user_maths.cpp ****         else if (angle == 180.f)
 948              		.loc 1 143 99 view .LVU183
 949 0122 DFED077A 		vldr.32	s15, .L81+8	@ tmp171,
 950 0126 87EE270A 		vdiv.f32	s0, s14, s15	@ _22, _21, tmp171
 951              	@ ACE_ECF_25/Algorithm/user_maths/cpp_files/user_maths.cpp:143:             sin_angle = -(Trigonome
 143:ACE_ECF_25/Algorithm/user_maths/cpp_files/user_maths.cpp ****         else if (angle == 180.f)
 952              		.loc 1 143 23 view .LVU184
 953 012a B1EE400A 		vneg.f32	s0, s0	@ <retval>, _22
 954              	.LVL65:
 143:ACE_ECF_25/Algorithm/user_maths/cpp_files/user_maths.cpp ****         else if (angle == 180.f)
 955              		.loc 1 143 23 view .LVU185
 956 012e 87E7     		b	.L54		@
 957              	.LVL66:
 958              	.L77:
 959              	@ ACE_ECF_25/Algorithm/user_maths/cpp_files/user_maths.cpp:134:         float sin_angle = 0.0f;
 134:ACE_ECF_25/Algorithm/user_maths/cpp_files/user_maths.cpp **** 
 960              		.loc 1 134 15 view .LVU186
 961 0130 9FED070A 		vldr.32	s0, .L81+24	@ <retval>,
 962              	.LVL67:
 134:ACE_ECF_25/Algorithm/user_maths/cpp_files/user_maths.cpp **** 
 963              		.loc 1 134 15 view .LVU187
 964 0134 84E7     		b	.L54		@
 965              	.L82:
 966 0136 00BF     		.align	2
 967              	.L81:
 968 0138 0000B442 		.word	1119092736
 969 013c 00000000 		.word	.LANCHOR1
 970 0140 0000C842 		.word	1120403456
ARM GAS  C:\Users\28212\AppData\Local\Temp\cc7dq27q.s 			page 24


 971 0144 00003443 		.word	1127481344
 972 0148 000034C3 		.word	-1020002304
 973 014c 0000B4C2 		.word	-1028390912
 974 0150 00000000 		.word	0
 975              		.cfi_endproc
 976              	.LFE384:
 977              		.size	_ZN8UserMath13sin_calculateEf, .-_ZN8UserMath13sin_calculateEf
 978              		.section	.text._ZN8UserMath13cos_calculateEf,"ax",%progbits
 979              		.align	1
 980              		.global	_ZN8UserMath13cos_calculateEf
 981              		.syntax unified
 982              		.thumb
 983              		.thumb_func
 984              		.type	_ZN8UserMath13cos_calculateEf, %function
 985              	_ZN8UserMath13cos_calculateEf:
 986              	.LVL68:
 987              	.LFB385:
 149:ACE_ECF_25/Algorithm/user_maths/cpp_files/user_maths.cpp **** 
 150:ACE_ECF_25/Algorithm/user_maths/cpp_files/user_maths.cpp ****     // cos函数查表法
 151:ACE_ECF_25/Algorithm/user_maths/cpp_files/user_maths.cpp ****     float cos_calculate(float angle)
 152:ACE_ECF_25/Algorithm/user_maths/cpp_files/user_maths.cpp ****     {
 988              		.loc 1 152 5 is_stmt 1 view -0
 989              		.cfi_startproc
 990              		@ args = 0, pretend = 0, frame = 0
 991              		@ frame_needed = 0, uses_anonymous_args = 0
 992              		.loc 1 152 5 is_stmt 0 view .LVU189
 993 0000 08B5     		push	{r3, lr}	@
 994              	.LCFI13:
 995              		.cfi_def_cfa_offset 8
 996              		.cfi_offset 3, -8
 997              		.cfi_offset 14, -4
 153:ACE_ECF_25/Algorithm/user_maths/cpp_files/user_maths.cpp ****         float cos_angle = 0.0f;
 998              		.loc 1 153 9 is_stmt 1 view .LVU190
 999              	.LVL69:
 154:ACE_ECF_25/Algorithm/user_maths/cpp_files/user_maths.cpp **** 
 155:ACE_ECF_25/Algorithm/user_maths/cpp_files/user_maths.cpp ****         angle = abs(angle);
 1000              		.loc 1 155 9 view .LVU191
 1001              	@ ACE_ECF_25/Algorithm/user_maths/cpp_files/user_maths.cpp:155:         angle = abs(angle);
 1002              		.loc 1 155 20 is_stmt 0 view .LVU192
 1003 0002 FFF7FEFF 		bl	_ZN8UserMath3absIfEET_S1_		@
 1004              	.LVL70:
 156:ACE_ECF_25/Algorithm/user_maths/cpp_files/user_maths.cpp **** 
 157:ACE_ECF_25/Algorithm/user_maths/cpp_files/user_maths.cpp ****         if (angle >= 0.0f && angle < 90.0f)
 1005              		.loc 1 157 9 is_stmt 1 view .LVU193
 1006 0006 B5EEC00A 		vcmpe.f32	s0, #0	@ angle
 1007 000a F1EE10FA 		vmrs	APSR_nzcv, FPSCR
 1008 000e 1CDB     		blt	.L84		@,
 1009              	@ ACE_ECF_25/Algorithm/user_maths/cpp_files/user_maths.cpp:157:         if (angle >= 0.0f && angle 
 1010              		.loc 1 157 27 is_stmt 0 discriminator 1 view .LVU194
 1011 0010 DFED287A 		vldr.32	s15, .L97	@ tmp128,
 1012 0014 B4EEE70A 		vcmpe.f32	s0, s15	@ angle, tmp128
 1013 0018 F1EE10FA 		vmrs	APSR_nzcv, FPSCR
 1014 001c 15D5     		bpl	.L84		@,
 158:ACE_ECF_25/Algorithm/user_maths/cpp_files/user_maths.cpp ****             cos_angle = (Trigonometric_Functions[(int) (abs(90.0f - angle) * 10.0f)] / 100.0f);
 1015              		.loc 1 158 13 is_stmt 1 view .LVU195
 1016              	@ ACE_ECF_25/Algorithm/user_maths/cpp_files/user_maths.cpp:158:             cos_angle = (Trigonomet
 1017              		.loc 1 158 60 is_stmt 0 view .LVU196
ARM GAS  C:\Users\28212\AppData\Local\Temp\cc7dq27q.s 			page 25


 1018 001e 37EEC00A 		vsub.f32	s0, s15, s0	@, tmp130, angle
 1019              	.LVL71:
 1020              		.loc 1 158 60 view .LVU197
 1021 0022 FFF7FEFF 		bl	_ZN8UserMath3absIfEET_S1_		@
 1022              	.LVL72:
 1023              	@ ACE_ECF_25/Algorithm/user_maths/cpp_files/user_maths.cpp:158:             cos_angle = (Trigonomet
 1024              		.loc 1 158 76 view .LVU198
 1025 0026 F2EE047A 		vmov.f32	s15, #1.0e+1	@ tmp131,
 1026 002a 20EE270A 		vmul.f32	s0, s0, s15	@ _3, tmp148, tmp131
 1027              	@ ACE_ECF_25/Algorithm/user_maths/cpp_files/user_maths.cpp:158:             cos_angle = (Trigonomet
 1028              		.loc 1 158 50 view .LVU199
 1029 002e BDEEC00A 		vcvt.s32.f32	s0, s0	@ _4, _3
 1030              	@ ACE_ECF_25/Algorithm/user_maths/cpp_files/user_maths.cpp:158:             cos_angle = (Trigonomet
 1031              		.loc 1 158 84 view .LVU200
 1032 0032 214B     		ldr	r3, .L97+4	@ tmp132,
 1033 0034 10EE102A 		vmov	r2, s0	@ int	@ _4, _4
 1034 0038 03EB8203 		add	r3, r3, r2, lsl #2	@ tmp134, tmp132, _4,
 1035 003c 93ED007A 		vldr.32	s14, [r3]	@ _5, Trigonometric_Functions[_4]
 1036              	@ ACE_ECF_25/Algorithm/user_maths/cpp_files/user_maths.cpp:158:             cos_angle = (Trigonomet
 1037              		.loc 1 158 23 view .LVU201
 1038 0040 DFED1E7A 		vldr.32	s15, .L97+8	@ tmp135,
 1039 0044 87EE270A 		vdiv.f32	s0, s14, s15	@ <retval>, _5, tmp135
 1040              	.LVL73:
 1041              	.L83:
 1042              	@ ACE_ECF_25/Algorithm/user_maths/cpp_files/user_maths.cpp:165:     }
 159:ACE_ECF_25/Algorithm/user_maths/cpp_files/user_maths.cpp ****         else if (angle >= 90.0f && angle < 180.f)
 160:ACE_ECF_25/Algorithm/user_maths/cpp_files/user_maths.cpp ****             cos_angle = -(Trigonometric_Functions[(int) (abs(angle - 90.0f) * 10.0f)] / 100.0f);
 161:ACE_ECF_25/Algorithm/user_maths/cpp_files/user_maths.cpp ****         else if (angle == 180.f)
 162:ACE_ECF_25/Algorithm/user_maths/cpp_files/user_maths.cpp ****             cos_angle = -1.0f;
 163:ACE_ECF_25/Algorithm/user_maths/cpp_files/user_maths.cpp **** 
 164:ACE_ECF_25/Algorithm/user_maths/cpp_files/user_maths.cpp ****         return cos_angle;
 165:ACE_ECF_25/Algorithm/user_maths/cpp_files/user_maths.cpp ****     }
 1043              		.loc 1 165 5 view .LVU202
 1044 0048 08BD     		pop	{r3, pc}	@
 1045              	.LVL74:
 1046              	.L84:
 159:ACE_ECF_25/Algorithm/user_maths/cpp_files/user_maths.cpp ****         else if (angle >= 90.0f && angle < 180.f)
 1047              		.loc 1 159 14 is_stmt 1 view .LVU203
 1048 004a DFED1A7A 		vldr.32	s15, .L97	@ tmp136,
 1049 004e B4EEE70A 		vcmpe.f32	s0, s15	@ angle, tmp136
 1050 0052 F1EE10FA 		vmrs	APSR_nzcv, FPSCR
 1051 0056 20DB     		blt	.L88		@,
 1052              	@ ACE_ECF_25/Algorithm/user_maths/cpp_files/user_maths.cpp:159:         else if (angle >= 90.0f && 
 159:ACE_ECF_25/Algorithm/user_maths/cpp_files/user_maths.cpp ****         else if (angle >= 90.0f && angle < 180.f)
 1053              		.loc 1 159 33 is_stmt 0 discriminator 1 view .LVU204
 1054 0058 DFED197A 		vldr.32	s15, .L97+12	@ tmp137,
 1055 005c B4EEE70A 		vcmpe.f32	s0, s15	@ angle, tmp137
 1056 0060 F1EE10FA 		vmrs	APSR_nzcv, FPSCR
 1057 0064 19D5     		bpl	.L88		@,
 160:ACE_ECF_25/Algorithm/user_maths/cpp_files/user_maths.cpp ****         else if (angle == 180.f)
 1058              		.loc 1 160 13 is_stmt 1 view .LVU205
 1059              	@ ACE_ECF_25/Algorithm/user_maths/cpp_files/user_maths.cpp:160:             cos_angle = -(Trigonome
 160:ACE_ECF_25/Algorithm/user_maths/cpp_files/user_maths.cpp ****         else if (angle == 180.f)
 1060              		.loc 1 160 61 is_stmt 0 view .LVU206
 1061 0066 DFED137A 		vldr.32	s15, .L97	@ tmp139,
 1062 006a 30EE670A 		vsub.f32	s0, s0, s15	@, angle, tmp139
 1063              	.LVL75:
ARM GAS  C:\Users\28212\AppData\Local\Temp\cc7dq27q.s 			page 26


 160:ACE_ECF_25/Algorithm/user_maths/cpp_files/user_maths.cpp ****         else if (angle == 180.f)
 1064              		.loc 1 160 61 view .LVU207
 1065 006e FFF7FEFF 		bl	_ZN8UserMath3absIfEET_S1_		@
 1066              	.LVL76:
 1067              	@ ACE_ECF_25/Algorithm/user_maths/cpp_files/user_maths.cpp:160:             cos_angle = -(Trigonome
 160:ACE_ECF_25/Algorithm/user_maths/cpp_files/user_maths.cpp ****         else if (angle == 180.f)
 1068              		.loc 1 160 77 view .LVU208
 1069 0072 F2EE047A 		vmov.f32	s15, #1.0e+1	@ tmp140,
 1070 0076 20EE270A 		vmul.f32	s0, s0, s15	@ _8, tmp149, tmp140
 1071              	@ ACE_ECF_25/Algorithm/user_maths/cpp_files/user_maths.cpp:160:             cos_angle = -(Trigonome
 160:ACE_ECF_25/Algorithm/user_maths/cpp_files/user_maths.cpp ****         else if (angle == 180.f)
 1072              		.loc 1 160 51 view .LVU209
 1073 007a BDEEC00A 		vcvt.s32.f32	s0, s0	@ _9, _8
 1074              	@ ACE_ECF_25/Algorithm/user_maths/cpp_files/user_maths.cpp:160:             cos_angle = -(Trigonome
 160:ACE_ECF_25/Algorithm/user_maths/cpp_files/user_maths.cpp ****         else if (angle == 180.f)
 1075              		.loc 1 160 85 view .LVU210
 1076 007e 0E4B     		ldr	r3, .L97+4	@ tmp141,
 1077 0080 10EE102A 		vmov	r2, s0	@ int	@ _9, _9
 1078 0084 03EB8203 		add	r3, r3, r2, lsl #2	@ tmp143, tmp141, _9,
 1079 0088 93ED007A 		vldr.32	s14, [r3]	@ _10, Trigonometric_Functions[_9]
 1080              	@ ACE_ECF_25/Algorithm/user_maths/cpp_files/user_maths.cpp:160:             cos_angle = -(Trigonome
 160:ACE_ECF_25/Algorithm/user_maths/cpp_files/user_maths.cpp ****         else if (angle == 180.f)
 1081              		.loc 1 160 87 view .LVU211
 1082 008c DFED0B7A 		vldr.32	s15, .L97+8	@ tmp144,
 1083 0090 87EE270A 		vdiv.f32	s0, s14, s15	@ _11, _10, tmp144
 1084              	@ ACE_ECF_25/Algorithm/user_maths/cpp_files/user_maths.cpp:160:             cos_angle = -(Trigonome
 160:ACE_ECF_25/Algorithm/user_maths/cpp_files/user_maths.cpp ****         else if (angle == 180.f)
 1085              		.loc 1 160 23 view .LVU212
 1086 0094 B1EE400A 		vneg.f32	s0, s0	@ <retval>, _11
 1087              	.LVL77:
 160:ACE_ECF_25/Algorithm/user_maths/cpp_files/user_maths.cpp ****         else if (angle == 180.f)
 1088              		.loc 1 160 23 view .LVU213
 1089 0098 D6E7     		b	.L83		@
 1090              	.LVL78:
 1091              	.L88:
 161:ACE_ECF_25/Algorithm/user_maths/cpp_files/user_maths.cpp ****             cos_angle = -1.0f;
 1092              		.loc 1 161 14 is_stmt 1 view .LVU214
 1093 009a DFED097A 		vldr.32	s15, .L97+12	@ tmp145,
 1094 009e B4EE670A 		vcmp.f32	s0, s15	@ angle, tmp145
 1095 00a2 F1EE10FA 		vmrs	APSR_nzcv, FPSCR
 1096 00a6 02D0     		beq	.L91		@,
 1097              	@ ACE_ECF_25/Algorithm/user_maths/cpp_files/user_maths.cpp:153:         float cos_angle = 0.0f;
 153:ACE_ECF_25/Algorithm/user_maths/cpp_files/user_maths.cpp **** 
 1098              		.loc 1 153 15 is_stmt 0 view .LVU215
 1099 00a8 9FED060A 		vldr.32	s0, .L97+16	@ <retval>,
 1100              	.LVL79:
 153:ACE_ECF_25/Algorithm/user_maths/cpp_files/user_maths.cpp **** 
 1101              		.loc 1 153 15 view .LVU216
 1102 00ac CCE7     		b	.L83		@
 1103              	.LVL80:
 1104              	.L91:
 1105              	@ ACE_ECF_25/Algorithm/user_maths/cpp_files/user_maths.cpp:162:             cos_angle = -1.0f;
 162:ACE_ECF_25/Algorithm/user_maths/cpp_files/user_maths.cpp **** 
 1106              		.loc 1 162 23 view .LVU217
 1107 00ae BFEE000A 		vmov.f32	s0, #-1.0e+0	@ <retval>,
 1108              	.LVL81:
 164:ACE_ECF_25/Algorithm/user_maths/cpp_files/user_maths.cpp ****     }
ARM GAS  C:\Users\28212\AppData\Local\Temp\cc7dq27q.s 			page 27


 1109              		.loc 1 164 9 is_stmt 1 view .LVU218
 1110              	@ ACE_ECF_25/Algorithm/user_maths/cpp_files/user_maths.cpp:164:         return cos_angle;
 164:ACE_ECF_25/Algorithm/user_maths/cpp_files/user_maths.cpp ****     }
 1111              		.loc 1 164 16 is_stmt 0 view .LVU219
 1112 00b2 C9E7     		b	.L83		@
 1113              	.L98:
 1114              		.align	2
 1115              	.L97:
 1116 00b4 0000B442 		.word	1119092736
 1117 00b8 00000000 		.word	.LANCHOR1
 1118 00bc 0000C842 		.word	1120403456
 1119 00c0 00003443 		.word	1127481344
 1120 00c4 00000000 		.word	0
 1121              		.cfi_endproc
 1122              	.LFE385:
 1123              		.size	_ZN8UserMath13cos_calculateEf, .-_ZN8UserMath13cos_calculateEf
 1124              		.section	.text._ZN8UserMath18float_min_distanceEffff,"ax",%progbits
 1125              		.align	1
 1126              		.global	_ZN8UserMath18float_min_distanceEffff
 1127              		.syntax unified
 1128              		.thumb
 1129              		.thumb_func
 1130              		.type	_ZN8UserMath18float_min_distanceEffff, %function
 1131              	_ZN8UserMath18float_min_distanceEffff:
 1132              	.LVL82:
 1133              	.LFB386:
 166:ACE_ECF_25/Algorithm/user_maths/cpp_files/user_maths.cpp **** 
 167:ACE_ECF_25/Algorithm/user_maths/cpp_files/user_maths.cpp ****     float float_min_distance(float target, float actual, float minValue, float maxValue)
 168:ACE_ECF_25/Algorithm/user_maths/cpp_files/user_maths.cpp ****     {
 1134              		.loc 1 168 5 is_stmt 1 view -0
 1135              		.cfi_startproc
 1136              		@ args = 0, pretend = 0, frame = 0
 1137              		@ frame_needed = 0, uses_anonymous_args = 0
 1138              		.loc 1 168 5 is_stmt 0 view .LVU221
 1139 0000 08B5     		push	{r3, lr}	@
 1140              	.LCFI14:
 1141              		.cfi_def_cfa_offset 8
 1142              		.cfi_offset 3, -8
 1143              		.cfi_offset 14, -4
 1144 0002 2DED068B 		vpush.64	{d8, d9, d10}	@
 1145              	.LCFI15:
 1146              		.cfi_def_cfa_offset 32
 1147              		.cfi_offset 80, -32
 1148              		.cfi_offset 81, -28
 1149              		.cfi_offset 82, -24
 1150              		.cfi_offset 83, -20
 1151              		.cfi_offset 84, -16
 1152              		.cfi_offset 85, -12
 169:ACE_ECF_25/Algorithm/user_maths/cpp_files/user_maths.cpp ****         if (maxValue < minValue)
 1153              		.loc 1 169 9 is_stmt 1 view .LVU222
 1154 0006 F4EEC11A 		vcmpe.f32	s3, s2	@ maxValue, minValue
 1155 000a F1EE10FA 		vmrs	APSR_nzcv, FPSCR
 1156 000e 06D5     		bpl	.L109		@,
 1157              	@ ACE_ECF_25/Algorithm/user_maths/cpp_files/user_maths.cpp:171:             return 0;
 170:ACE_ECF_25/Algorithm/user_maths/cpp_files/user_maths.cpp ****         {
 171:ACE_ECF_25/Algorithm/user_maths/cpp_files/user_maths.cpp ****             return 0;
 1158              		.loc 1 171 20 is_stmt 0 view .LVU223
ARM GAS  C:\Users\28212\AppData\Local\Temp\cc7dq27q.s 			page 28


 1159 0010 DFED1C9A 		vldr.32	s19, .L110	@ <retval>,
 1160              	.LVL83:
 1161              	.L99:
 1162              	@ ACE_ECF_25/Algorithm/user_maths/cpp_files/user_maths.cpp:191:     }
 172:ACE_ECF_25/Algorithm/user_maths/cpp_files/user_maths.cpp ****         }
 173:ACE_ECF_25/Algorithm/user_maths/cpp_files/user_maths.cpp **** 
 174:ACE_ECF_25/Algorithm/user_maths/cpp_files/user_maths.cpp ****         target = loop_fp32_constrain(target, minValue, maxValue);
 175:ACE_ECF_25/Algorithm/user_maths/cpp_files/user_maths.cpp **** 
 176:ACE_ECF_25/Algorithm/user_maths/cpp_files/user_maths.cpp ****         if (abs(target - actual) > (maxValue - minValue) / 2.0f)
 177:ACE_ECF_25/Algorithm/user_maths/cpp_files/user_maths.cpp ****         {
 178:ACE_ECF_25/Algorithm/user_maths/cpp_files/user_maths.cpp ****             if (maxValue - actual < (maxValue - minValue) / 2.0f)
 179:ACE_ECF_25/Algorithm/user_maths/cpp_files/user_maths.cpp ****             {
 180:ACE_ECF_25/Algorithm/user_maths/cpp_files/user_maths.cpp ****                 return maxValue - actual + target - minValue;
 181:ACE_ECF_25/Algorithm/user_maths/cpp_files/user_maths.cpp ****             }
 182:ACE_ECF_25/Algorithm/user_maths/cpp_files/user_maths.cpp ****             else
 183:ACE_ECF_25/Algorithm/user_maths/cpp_files/user_maths.cpp ****             {
 184:ACE_ECF_25/Algorithm/user_maths/cpp_files/user_maths.cpp ****                 return minValue - actual + target - maxValue;
 185:ACE_ECF_25/Algorithm/user_maths/cpp_files/user_maths.cpp ****             }
 186:ACE_ECF_25/Algorithm/user_maths/cpp_files/user_maths.cpp ****         }
 187:ACE_ECF_25/Algorithm/user_maths/cpp_files/user_maths.cpp ****         else
 188:ACE_ECF_25/Algorithm/user_maths/cpp_files/user_maths.cpp ****         {
 189:ACE_ECF_25/Algorithm/user_maths/cpp_files/user_maths.cpp ****             return target - actual;
 190:ACE_ECF_25/Algorithm/user_maths/cpp_files/user_maths.cpp ****         }
 191:ACE_ECF_25/Algorithm/user_maths/cpp_files/user_maths.cpp ****     }
 1163              		.loc 1 191 5 view .LVU224
 1164 0014 B0EE690A 		vmov.f32	s0, s19	@, <retval>
 1165 0018 BDEC068B 		vldm	sp!, {d8-d10}	@,
 1166              	.LCFI16:
 1167              		.cfi_remember_state
 1168              		.cfi_restore 84
 1169              		.cfi_restore 85
 1170              		.cfi_restore 82
 1171              		.cfi_restore 83
 1172              		.cfi_restore 80
 1173              		.cfi_restore 81
 1174              		.cfi_def_cfa_offset 8
 1175 001c 08BD     		pop	{r3, pc}	@
 1176              	.LVL84:
 1177              	.L109:
 1178              	.LCFI17:
 1179              		.cfi_restore_state
 1180              		.loc 1 191 5 view .LVU225
 1181 001e B0EE609A 		vmov.f32	s18, s1	@ actual, tmp129
 1182 0022 B0EE418A 		vmov.f32	s16, s2	@ minValue, tmp130
 1183 0026 F0EE618A 		vmov.f32	s17, s3	@ maxValue, tmp131
 174:ACE_ECF_25/Algorithm/user_maths/cpp_files/user_maths.cpp **** 
 1184              		.loc 1 174 9 is_stmt 1 view .LVU226
 1185              	@ ACE_ECF_25/Algorithm/user_maths/cpp_files/user_maths.cpp:174:         target = loop_fp32_constrai
 174:ACE_ECF_25/Algorithm/user_maths/cpp_files/user_maths.cpp **** 
 1186              		.loc 1 174 37 is_stmt 0 view .LVU227
 1187 002a B0EE611A 		vmov.f32	s2, s3	@, maxValue
 1188              	.LVL85:
 174:ACE_ECF_25/Algorithm/user_maths/cpp_files/user_maths.cpp **** 
 1189              		.loc 1 174 37 view .LVU228
 1190 002e F0EE480A 		vmov.f32	s1, s16	@, minValue
 1191              	.LVL86:
 174:ACE_ECF_25/Algorithm/user_maths/cpp_files/user_maths.cpp **** 
ARM GAS  C:\Users\28212\AppData\Local\Temp\cc7dq27q.s 			page 29


 1192              		.loc 1 174 37 view .LVU229
 1193 0032 FFF7FEFF 		bl	_ZN8UserMath19loop_fp32_constrainEfff		@
 1194              	.LVL87:
 174:ACE_ECF_25/Algorithm/user_maths/cpp_files/user_maths.cpp **** 
 1195              		.loc 1 174 37 view .LVU230
 1196 0036 B0EE40AA 		vmov.f32	s20, s0	@ target, tmp132
 1197              	.LVL88:
 176:ACE_ECF_25/Algorithm/user_maths/cpp_files/user_maths.cpp ****         {
 1198              		.loc 1 176 9 is_stmt 1 view .LVU231
 1199              	@ ACE_ECF_25/Algorithm/user_maths/cpp_files/user_maths.cpp:176:         if (abs(target - actual) > 
 176:ACE_ECF_25/Algorithm/user_maths/cpp_files/user_maths.cpp ****         {
 1200              		.loc 1 176 16 is_stmt 0 view .LVU232
 1201 003a 70EE499A 		vsub.f32	s19, s0, s18	@ <retval>, target, actual
 1202 003e B0EE690A 		vmov.f32	s0, s19	@, <retval>
 1203              	.LVL89:
 176:ACE_ECF_25/Algorithm/user_maths/cpp_files/user_maths.cpp ****         {
 1204              		.loc 1 176 16 view .LVU233
 1205 0042 FFF7FEFF 		bl	_ZN8UserMath3absIfEET_S1_		@
 1206              	.LVL90:
 1207              	@ ACE_ECF_25/Algorithm/user_maths/cpp_files/user_maths.cpp:176:         if (abs(target - actual) > 
 176:ACE_ECF_25/Algorithm/user_maths/cpp_files/user_maths.cpp ****         {
 1208              		.loc 1 176 46 view .LVU234
 1209 0046 78EEC87A 		vsub.f32	s15, s17, s16	@ _3, maxValue, minValue
 1210              	@ ACE_ECF_25/Algorithm/user_maths/cpp_files/user_maths.cpp:176:         if (abs(target - actual) > 
 176:ACE_ECF_25/Algorithm/user_maths/cpp_files/user_maths.cpp ****         {
 1211              		.loc 1 176 58 view .LVU235
 1212 004a B6EE007A 		vmov.f32	s14, #5.0e-1	@ tmp126,
 1213 004e 67EE877A 		vmul.f32	s15, s15, s14	@ _4, _3, tmp126
 1214              	@ ACE_ECF_25/Algorithm/user_maths/cpp_files/user_maths.cpp:176:         if (abs(target - actual) > 
 176:ACE_ECF_25/Algorithm/user_maths/cpp_files/user_maths.cpp ****         {
 1215              		.loc 1 176 9 view .LVU236
 1216 0052 B4EEE70A 		vcmpe.f32	s0, s15	@ tmp133, _4
 1217 0056 F1EE10FA 		vmrs	APSR_nzcv, FPSCR
 1218 005a DBDD     		ble	.L99		@,
 178:ACE_ECF_25/Algorithm/user_maths/cpp_files/user_maths.cpp ****             {
 1219              		.loc 1 178 13 is_stmt 1 view .LVU237
 1220              	@ ACE_ECF_25/Algorithm/user_maths/cpp_files/user_maths.cpp:178:             if (maxValue - actual <
 178:ACE_ECF_25/Algorithm/user_maths/cpp_files/user_maths.cpp ****             {
 1221              		.loc 1 178 26 is_stmt 0 view .LVU238
 1222 005c 78EEC99A 		vsub.f32	s19, s17, s18	@ _5, maxValue, actual
 1223              	@ ACE_ECF_25/Algorithm/user_maths/cpp_files/user_maths.cpp:178:             if (maxValue - actual <
 178:ACE_ECF_25/Algorithm/user_maths/cpp_files/user_maths.cpp ****             {
 1224              		.loc 1 178 13 view .LVU239
 1225 0060 F4EEE97A 		vcmpe.f32	s15, s19	@ _4, _5
 1226 0064 F1EE10FA 		vmrs	APSR_nzcv, FPSCR
 1227 0068 04DD     		ble	.L107		@,
 180:ACE_ECF_25/Algorithm/user_maths/cpp_files/user_maths.cpp ****             }
 1228              		.loc 1 180 17 is_stmt 1 view .LVU240
 1229              	@ ACE_ECF_25/Algorithm/user_maths/cpp_files/user_maths.cpp:180:                 return maxValue - a
 180:ACE_ECF_25/Algorithm/user_maths/cpp_files/user_maths.cpp ****             }
 1230              		.loc 1 180 42 is_stmt 0 view .LVU241
 1231 006a 79EE8A9A 		vadd.f32	s19, s19, s20	@ _6, _5, target
 1232              	@ ACE_ECF_25/Algorithm/user_maths/cpp_files/user_maths.cpp:180:                 return maxValue - a
 180:ACE_ECF_25/Algorithm/user_maths/cpp_files/user_maths.cpp ****             }
 1233              		.loc 1 180 53 view .LVU242
 1234 006e 79EEC89A 		vsub.f32	s19, s19, s16	@ <retval>, _6, minValue
 1235 0072 CFE7     		b	.L99		@
ARM GAS  C:\Users\28212\AppData\Local\Temp\cc7dq27q.s 			page 30


 1236              	.L107:
 184:ACE_ECF_25/Algorithm/user_maths/cpp_files/user_maths.cpp ****             }
 1237              		.loc 1 184 17 is_stmt 1 view .LVU243
 1238              	@ ACE_ECF_25/Algorithm/user_maths/cpp_files/user_maths.cpp:184:                 return minValue - a
 184:ACE_ECF_25/Algorithm/user_maths/cpp_files/user_maths.cpp ****             }
 1239              		.loc 1 184 33 is_stmt 0 view .LVU244
 1240 0074 38EE498A 		vsub.f32	s16, s16, s18	@ _7, minValue, actual
 1241              	.LVL91:
 1242              	@ ACE_ECF_25/Algorithm/user_maths/cpp_files/user_maths.cpp:184:                 return minValue - a
 184:ACE_ECF_25/Algorithm/user_maths/cpp_files/user_maths.cpp ****             }
 1243              		.loc 1 184 42 view .LVU245
 1244 0078 38EE0A0A 		vadd.f32	s0, s16, s20	@ _8, _7, target
 1245              	@ ACE_ECF_25/Algorithm/user_maths/cpp_files/user_maths.cpp:184:                 return minValue - a
 184:ACE_ECF_25/Algorithm/user_maths/cpp_files/user_maths.cpp ****             }
 1246              		.loc 1 184 53 view .LVU246
 1247 007c 70EE689A 		vsub.f32	s19, s0, s17	@ <retval>, _8, maxValue
 1248 0080 C8E7     		b	.L99		@
 1249              	.L111:
 1250 0082 00BF     		.align	2
 1251              	.L110:
 1252 0084 00000000 		.word	0
 1253              		.cfi_endproc
 1254              	.LFE386:
 1255              		.size	_ZN8UserMath18float_min_distanceEffff, .-_ZN8UserMath18float_min_distanceEffff
 1256              		.section	.text._ZN8UserMath19CircleIncreaseLimitEfff,"ax",%progbits
 1257              		.align	1
 1258              		.global	_ZN8UserMath19CircleIncreaseLimitEfff
 1259              		.syntax unified
 1260              		.thumb
 1261              		.thumb_func
 1262              		.type	_ZN8UserMath19CircleIncreaseLimitEfff, %function
 1263              	_ZN8UserMath19CircleIncreaseLimitEfff:
 1264              	.LVL92:
 1265              	.LFB387:
 192:ACE_ECF_25/Algorithm/user_maths/cpp_files/user_maths.cpp **** 
 193:ACE_ECF_25/Algorithm/user_maths/cpp_files/user_maths.cpp ****     /***
 194:ACE_ECF_25/Algorithm/user_maths/cpp_files/user_maths.cpp ****      * @brief 周期递增限制
 195:ACE_ECF_25/Algorithm/user_maths/cpp_files/user_maths.cpp ****      * @param current_val 当前实际值
 196:ACE_ECF_25/Algorithm/user_maths/cpp_files/user_maths.cpp ****      * @param set_val 设定值
 197:ACE_ECF_25/Algorithm/user_maths/cpp_files/user_maths.cpp ****      * @param limit 每次调用该函数最大递增的值, 为正数
 198:ACE_ECF_25/Algorithm/user_maths/cpp_files/user_maths.cpp ****      * @return 返回一个处理好的值
 199:ACE_ECF_25/Algorithm/user_maths/cpp_files/user_maths.cpp ****     */
 200:ACE_ECF_25/Algorithm/user_maths/cpp_files/user_maths.cpp ****     float CircleIncreaseLimit(float current_val, float set_val, float limit)
 201:ACE_ECF_25/Algorithm/user_maths/cpp_files/user_maths.cpp ****     {
 1266              		.loc 1 201 5 is_stmt 1 view -0
 1267              		.cfi_startproc
 1268              		@ args = 0, pretend = 0, frame = 0
 1269              		@ frame_needed = 0, uses_anonymous_args = 0
 1270              		.loc 1 201 5 is_stmt 0 view .LVU248
 1271 0000 08B5     		push	{r3, lr}	@
 1272              	.LCFI18:
 1273              		.cfi_def_cfa_offset 8
 1274              		.cfi_offset 3, -8
 1275              		.cfi_offset 14, -4
 1276 0002 2DED028B 		vpush.64	{d8}	@
 1277              	.LCFI19:
 1278              		.cfi_def_cfa_offset 16
ARM GAS  C:\Users\28212\AppData\Local\Temp\cc7dq27q.s 			page 31


 1279              		.cfi_offset 80, -16
 1280              		.cfi_offset 81, -12
 1281 0006 F0EE408A 		vmov.f32	s17, s0	@ current_val, tmp121
 1282 000a B0EE608A 		vmov.f32	s16, s1	@ set_val, tmp122
 202:ACE_ECF_25/Algorithm/user_maths/cpp_files/user_maths.cpp ****         limit = abs(limit);
 1283              		.loc 1 202 9 is_stmt 1 view .LVU249
 1284              	@ ACE_ECF_25/Algorithm/user_maths/cpp_files/user_maths.cpp:202:         limit = abs(limit);
 1285              		.loc 1 202 20 is_stmt 0 view .LVU250
 1286 000e B0EE410A 		vmov.f32	s0, s2	@, tmp123
 1287              	.LVL93:
 1288              		.loc 1 202 20 view .LVU251
 1289 0012 FFF7FEFF 		bl	_ZN8UserMath3absIfEET_S1_		@
 1290              	.LVL94:
 203:ACE_ECF_25/Algorithm/user_maths/cpp_files/user_maths.cpp ****         if(set_val - current_val > limit)
 1291              		.loc 1 203 9 is_stmt 1 view .LVU252
 1292              	@ ACE_ECF_25/Algorithm/user_maths/cpp_files/user_maths.cpp:203:         if(set_val - current_val > 
 1293              		.loc 1 203 20 is_stmt 0 view .LVU253
 1294 0016 78EE687A 		vsub.f32	s15, s16, s17	@ _1, set_val, current_val
 1295              	@ ACE_ECF_25/Algorithm/user_maths/cpp_files/user_maths.cpp:203:         if(set_val - current_val > 
 1296              		.loc 1 203 9 view .LVU254
 1297 001a F4EEC07A 		vcmpe.f32	s15, s0	@ _1, limit
 1298 001e F1EE10FA 		vmrs	APSR_nzcv, FPSCR
 1299 0022 09DC     		bgt	.L123		@,
 204:ACE_ECF_25/Algorithm/user_maths/cpp_files/user_maths.cpp ****         {
 205:ACE_ECF_25/Algorithm/user_maths/cpp_files/user_maths.cpp ****             return current_val + limit;
 206:ACE_ECF_25/Algorithm/user_maths/cpp_files/user_maths.cpp ****         }
 207:ACE_ECF_25/Algorithm/user_maths/cpp_files/user_maths.cpp ****         else if(set_val - current_val < -limit)
 1300              		.loc 1 207 14 is_stmt 1 view .LVU255
 1301              	@ ACE_ECF_25/Algorithm/user_maths/cpp_files/user_maths.cpp:207:         else if(set_val - current_v
 1302              		.loc 1 207 41 is_stmt 0 view .LVU256
 1303 0024 B1EE407A 		vneg.f32	s14, s0	@ _2, limit
 1304              	@ ACE_ECF_25/Algorithm/user_maths/cpp_files/user_maths.cpp:207:         else if(set_val - current_v
 1305              		.loc 1 207 14 view .LVU257
 1306 0028 F4EEC77A 		vcmpe.f32	s15, s14	@ _1, _2
 1307 002c F1EE10FA 		vmrs	APSR_nzcv, FPSCR
 1308 0030 07D5     		bpl	.L121		@,
 208:ACE_ECF_25/Algorithm/user_maths/cpp_files/user_maths.cpp ****         {
 209:ACE_ECF_25/Algorithm/user_maths/cpp_files/user_maths.cpp ****             return current_val - limit;
 1309              		.loc 1 209 13 is_stmt 1 view .LVU258
 1310              	@ ACE_ECF_25/Algorithm/user_maths/cpp_files/user_maths.cpp:209:             return current_val - li
 1311              		.loc 1 209 34 is_stmt 0 view .LVU259
 1312 0032 38EEC00A 		vsub.f32	s0, s17, s0	@ <retval>, current_val, limit
 1313              	.LVL95:
 1314              		.loc 1 209 34 view .LVU260
 1315 0036 01E0     		b	.L112		@
 1316              	.LVL96:
 1317              	.L123:
 205:ACE_ECF_25/Algorithm/user_maths/cpp_files/user_maths.cpp ****         }
 1318              		.loc 1 205 13 is_stmt 1 view .LVU261
 1319              	@ ACE_ECF_25/Algorithm/user_maths/cpp_files/user_maths.cpp:205:             return current_val + li
 205:ACE_ECF_25/Algorithm/user_maths/cpp_files/user_maths.cpp ****         }
 1320              		.loc 1 205 34 is_stmt 0 view .LVU262
 1321 0038 30EE280A 		vadd.f32	s0, s0, s17	@ <retval>, limit, current_val
 1322              	.LVL97:
 1323              	.L112:
 1324              	@ ACE_ECF_25/Algorithm/user_maths/cpp_files/user_maths.cpp:215:     }
 210:ACE_ECF_25/Algorithm/user_maths/cpp_files/user_maths.cpp ****         }
ARM GAS  C:\Users\28212\AppData\Local\Temp\cc7dq27q.s 			page 32


 211:ACE_ECF_25/Algorithm/user_maths/cpp_files/user_maths.cpp ****         else
 212:ACE_ECF_25/Algorithm/user_maths/cpp_files/user_maths.cpp ****         {
 213:ACE_ECF_25/Algorithm/user_maths/cpp_files/user_maths.cpp ****             return set_val;
 214:ACE_ECF_25/Algorithm/user_maths/cpp_files/user_maths.cpp ****         }
 215:ACE_ECF_25/Algorithm/user_maths/cpp_files/user_maths.cpp ****     }
 1325              		.loc 1 215 5 view .LVU263
 1326 003c BDEC028B 		vldm	sp!, {d8}	@
 1327              	.LCFI20:
 1328              		.cfi_remember_state
 1329              		.cfi_restore 80
 1330              		.cfi_restore 81
 1331              		.cfi_def_cfa_offset 8
 1332              	.LVL98:
 1333              		.loc 1 215 5 view .LVU264
 1334 0040 08BD     		pop	{r3, pc}	@
 1335              	.LVL99:
 1336              	.L121:
 1337              	.LCFI21:
 1338              		.cfi_restore_state
 1339              	@ ACE_ECF_25/Algorithm/user_maths/cpp_files/user_maths.cpp:213:             return set_val;
 213:ACE_ECF_25/Algorithm/user_maths/cpp_files/user_maths.cpp ****         }
 1340              		.loc 1 213 20 view .LVU265
 1341 0042 B0EE480A 		vmov.f32	s0, s16	@ <retval>, set_val
 1342              	.LVL100:
 213:ACE_ECF_25/Algorithm/user_maths/cpp_files/user_maths.cpp ****         }
 1343              		.loc 1 213 20 view .LVU266
 1344 0046 F9E7     		b	.L112		@
 1345              		.cfi_endproc
 1346              	.LFE387:
 1347              		.size	_ZN8UserMath19CircleIncreaseLimitEfff, .-_ZN8UserMath19CircleIncreaseLimitEfff
 1348              		.section	.bss._ZZN8UserMath24data_accelerated_controlEPffE8last_num,"aw",%nobits
 1349              		.align	1
 1350              		.set	.LANCHOR0,. + 0
 1351              		.type	_ZZN8UserMath24data_accelerated_controlEPffE8last_num, %object
 1352              		.size	_ZZN8UserMath24data_accelerated_controlEPffE8last_num, 2
 1353              	_ZZN8UserMath24data_accelerated_controlEPffE8last_num:
 1354 0000 0000     		.space	2
 1355              		.section	.rodata._ZN8UserMathL23Trigonometric_FunctionsE,"a"
 1356              		.align	2
 1357              		.set	.LANCHOR1,. + 0
 1358              		.type	_ZN8UserMathL23Trigonometric_FunctionsE, %object
 1359              		.size	_ZN8UserMathL23Trigonometric_FunctionsE, 3604
 1360              	_ZN8UserMathL23Trigonometric_FunctionsE:
 1361 0000 00000000 		.word	0
 1362 0004 BCB8323E 		.word	1043511484
 1363 0008 ABB8B23E 		.word	1051900075
 1364 000c 6A0A063F 		.word	1057360490
 1365 0010 63B8323F 		.word	1060288611
 1366 0014 39665F3F 		.word	1063216697
 1367 0018 F109863F 		.word	1065748977
 1368 001c AB609C3F 		.word	1067212971
 1369 0020 46B7B23F 		.word	1068676934
 1370 0024 BD0DC93F 		.word	1070140861
 1371 0028 0C64DF3F 		.word	1071604748
 1372 002c 2EBAF53F 		.word	1073068590
 1373 0030 10080640 		.word	1074137104
 1374 0034 ED321140 		.word	1074868973
ARM GAS  C:\Users\28212\AppData\Local\Temp\cc7dq27q.s 			page 33


 1375 0038 AE5D1C40 		.word	1075600814
 1376 003c 50882740 		.word	1076332624
 1377 0040 D0B23240 		.word	1077064400
 1378 0044 2DDD3D40 		.word	1077796141
 1379 0048 63074940 		.word	1078527843
 1380 004c 72315440 		.word	1079259506
 1381 0050 565B5F40 		.word	1079991126
 1382 0054 0D856A40 		.word	1080722701
 1383 0058 96AE7540 		.word	1081454230
 1384 005c F76B8040 		.word	1082158071
 1385 0060 89008640 		.word	1082523785
 1386 0064 01958B40 		.word	1082889473
 1387 0068 5C299140 		.word	1083255132
 1388 006c 9BBD9640 		.word	1083620763
 1389 0070 BB519C40 		.word	1083986363
 1390 0074 BDE5A140 		.word	1084351933
 1391 0078 9E79A740 		.word	1084717470
 1392 007c 5D0DAD40 		.word	1085082973
 1393 0080 FAA0B240 		.word	1085448442
 1394 0084 7334B840 		.word	1085813875
 1395 0088 C8C7BD40 		.word	1086179272
 1396 008c F75AC340 		.word	1086544631
 1397 0090 FEEDC840 		.word	1086909950
 1398 0094 DE80CE40 		.word	1087275230
 1399 0098 9413D440 		.word	1087640468
 1400 009c 20A6D940 		.word	1088005664
 1401 00a0 8138DF40 		.word	1088370817
 1402 00a4 B5CAE440 		.word	1088735925
 1403 00a8 BB5CEA40 		.word	1089100987
 1404 00ac 93EEEF40 		.word	1089466003
 1405 00b0 3A80F540 		.word	1089830970
 1406 00b4 B111FB40 		.word	1090195889
 1407 00b8 7B510041 		.word	1090539899
 1408 00bc 031A0341 		.word	1090722307
 1409 00c0 72E20541 		.word	1090904690
 1410 00c4 C6AA0841 		.word	1091087046
 1411 00c8 FE720B41 		.word	1091269374
 1412 00cc 1B3B0E41 		.word	1091451675
 1413 00d0 1B031141 		.word	1091633947
 1414 00d4 FECA1341 		.word	1091816190
 1415 00d8 C4921641 		.word	1091998404
 1416 00dc 6C5A1941 		.word	1092180588
 1417 00e0 F5211C41 		.word	1092362741
 1418 00e4 5FE91E41 		.word	1092544863
 1419 00e8 A9B02141 		.word	1092726953
 1420 00ec D3772441 		.word	1092909011
 1421 00f0 DC3E2741 		.word	1093091036
 1422 00f4 C3052A41 		.word	1093273027
 1423 00f8 89CC2C41 		.word	1093454985
 1424 00fc 2C932F41 		.word	1093636908
 1425 0100 AD593241 		.word	1093818797
 1426 0104 09203541 		.word	1094000649
 1427 0108 42E63741 		.word	1094182466
 1428 010c 55AC3A41 		.word	1094364245
 1429 0110 44723D41 		.word	1094545988
 1430 0114 0D384041 		.word	1094727693
 1431 0118 AFFD4241 		.word	1094909359
ARM GAS  C:\Users\28212\AppData\Local\Temp\cc7dq27q.s 			page 34


 1432 011c 2AC34541 		.word	1095090986
 1433 0120 7E884841 		.word	1095272574
 1434 0124 AA4D4B41 		.word	1095454122
 1435 0128 AD124E41 		.word	1095635629
 1436 012c 87D75041 		.word	1095817095
 1437 0130 389C5341 		.word	1095998520
 1438 0134 BE605641 		.word	1096179902
 1439 0138 19255941 		.word	1096361241
 1440 013c 49E95B41 		.word	1096542537
 1441 0140 4DAD5E41 		.word	1096723789
 1442 0144 25716141 		.word	1096904997
 1443 0148 D0346441 		.word	1097086160
 1444 014c 4DF86641 		.word	1097267277
 1445 0150 9CBB6941 		.word	1097448348
 1446 0154 BC7E6C41 		.word	1097629372
 1447 0158 AD416F41 		.word	1097810349
 1448 015c 6F047241 		.word	1097991279
 1449 0160 00C77441 		.word	1098172160
 1450 0164 60897741 		.word	1098352992
 1451 0168 8F4B7A41 		.word	1098533775
 1452 016c 8B0D7D41 		.word	1098714507
 1453 0170 56CF7F41 		.word	1098895190
 1454 0174 76488141 		.word	1098991734
 1455 0178 28A98241 		.word	1099082024
 1456 017c C0098441 		.word	1099172288
 1457 0180 3D6A8541 		.word	1099262525
 1458 0184 A0CA8641 		.word	1099352736
 1459 0188 E82A8841 		.word	1099442920
 1460 018c 148B8941 		.word	1099533076
 1461 0190 26EB8A41 		.word	1099623206
 1462 0194 1B4B8C41 		.word	1099713307
 1463 0198 F4AA8D41 		.word	1099803380
 1464 019c B20A8F41 		.word	1099893426
 1465 01a0 526A9041 		.word	1099983442
 1466 01a4 D6C99141 		.word	1100073430
 1467 01a8 3D299341 		.word	1100163389
 1468 01ac 86889441 		.word	1100253318
 1469 01b0 B1E79541 		.word	1100343217
 1470 01b4 BF469741 		.word	1100433087
 1471 01b8 AFA59841 		.word	1100522927
 1472 01bc 80049A41 		.word	1100612736
 1473 01c0 32639B41 		.word	1100702514
 1474 01c4 C5C19C41 		.word	1100792261
 1475 01c8 39209E41 		.word	1100881977
 1476 01cc 8E7E9F41 		.word	1100971662
 1477 01d0 C2DCA041 		.word	1101061314
 1478 01d4 D73AA241 		.word	1101150935
 1479 01d8 CB98A341 		.word	1101240523
 1480 01dc 9EF6A441 		.word	1101330078
 1481 01e0 5054A641 		.word	1101419600
 1482 01e4 E2B1A741 		.word	1101509090
 1483 01e8 510FA941 		.word	1101598545
 1484 01ec A06CAA41 		.word	1101687968
 1485 01f0 CCC9AB41 		.word	1101777356
 1486 01f4 D526AD41 		.word	1101866709
 1487 01f8 BC83AE41 		.word	1101956028
 1488 01fc 81E0AF41 		.word	1102045313
ARM GAS  C:\Users\28212\AppData\Local\Temp\cc7dq27q.s 			page 35


 1489 0200 223DB141 		.word	1102134562
 1490 0204 A099B241 		.word	1102223776
 1491 0208 FAF5B341 		.word	1102312954
 1492 020c 3052B541 		.word	1102402096
 1493 0210 42AEB641 		.word	1102491202
 1494 0214 300AB841 		.word	1102580272
 1495 0218 F865B941 		.word	1102669304
 1496 021c 9CC1BA41 		.word	1102758300
 1497 0220 1B1DBC41 		.word	1102847259
 1498 0224 7478BD41 		.word	1102936180
 1499 0228 A7D3BE41 		.word	1103025063
 1500 022c B42EC041 		.word	1103113908
 1501 0230 9B89C141 		.word	1103202715
 1502 0234 5BE4C241 		.word	1103291483
 1503 0238 F43EC441 		.word	1103380212
 1504 023c 6699C541 		.word	1103468902
 1505 0240 B0F3C641 		.word	1103557552
 1506 0244 D34DC841 		.word	1103646163
 1507 0248 CEA7C941 		.word	1103734734
 1508 024c A101CB41 		.word	1103823265
 1509 0250 4B5BCC41 		.word	1103911755
 1510 0254 CCB4CD41 		.word	1104000204
 1511 0258 240ECF41 		.word	1104088612
 1512 025c 5367D041 		.word	1104176979
 1513 0260 58C0D141 		.word	1104265304
 1514 0264 3319D341 		.word	1104353587
 1515 0268 E571D441 		.word	1104441829
 1516 026c 6BCAD541 		.word	1104530027
 1517 0270 C722D741 		.word	1104618183
 1518 0274 F97AD841 		.word	1104706297
 1519 0278 FFD2D941 		.word	1104794367
 1520 027c D92ADB41 		.word	1104882393
 1521 0280 8882DC41 		.word	1104970376
 1522 0284 0ADADD41 		.word	1105058314
 1523 0288 6131DF41 		.word	1105146209
 1524 028c 8B88E041 		.word	1105234059
 1525 0290 88DFE141 		.word	1105321864
 1526 0294 5836E341 		.word	1105409624
 1527 0298 FA8CE441 		.word	1105497338
 1528 029c 6FE3E541 		.word	1105585007
 1529 02a0 B639E741 		.word	1105672630
 1530 02a4 CF8FE841 		.word	1105760207
 1531 02a8 BAE5E941 		.word	1105847738
 1532 02ac 753BEB41 		.word	1105935221
 1533 02b0 0291EC41 		.word	1106022658
 1534 02b4 60E6ED41 		.word	1106110048
 1535 02b8 8E3BEF41 		.word	1106197390
 1536 02bc 8C90F041 		.word	1106284684
 1537 02c0 5BE5F141 		.word	1106371931
 1538 02c4 F939F341 		.word	1106459129
 1539 02c8 668EF441 		.word	1106546278
 1540 02cc A3E2F541 		.word	1106633379
 1541 02d0 AE36F741 		.word	1106720430
 1542 02d4 888AF841 		.word	1106807432
 1543 02d8 31DEF941 		.word	1106894385
 1544 02dc A831FB41 		.word	1106981288
 1545 02e0 EC84FC41 		.word	1107068140
ARM GAS  C:\Users\28212\AppData\Local\Temp\cc7dq27q.s 			page 36


 1546 02e4 FED7FD41 		.word	1107154942
 1547 02e8 DE2AFF41 		.word	1107241694
 1548 02ec C53E0042 		.word	1107312325
 1549 02f0 02E80042 		.word	1107355650
 1550 02f4 25910142 		.word	1107398949
 1551 02f8 2E3A0242 		.word	1107442222
 1552 02fc 1DE30242 		.word	1107485469
 1553 0300 F28B0342 		.word	1107528690
 1554 0304 AC340442 		.word	1107571884
 1555 0308 4DDD0442 		.word	1107615053
 1556 030c D3850542 		.word	1107658195
 1557 0310 3E2E0642 		.word	1107701310
 1558 0314 8ED60642 		.word	1107744398
 1559 0318 C37E0742 		.word	1107787459
 1560 031c DE260842 		.word	1107830494
 1561 0320 DDCE0842 		.word	1107873501
 1562 0324 C1760942 		.word	1107916481
 1563 0328 891E0A42 		.word	1107959433
 1564 032c 36C60A42 		.word	1108002358
 1565 0330 C76D0B42 		.word	1108045255
 1566 0334 3C150C42 		.word	1108088124
 1567 0338 96BC0C42 		.word	1108130966
 1568 033c D3630D42 		.word	1108173779
 1569 0340 F40A0E42 		.word	1108216564
 1570 0344 F9B10E42 		.word	1108259321
 1571 0348 E1580F42 		.word	1108302049
 1572 034c ACFF0F42 		.word	1108344748
 1573 0350 5BA61042 		.word	1108387419
 1574 0354 ED4C1142 		.word	1108430061
 1575 0358 62F31142 		.word	1108472674
 1576 035c BA991242 		.word	1108515258
 1577 0360 F43F1342 		.word	1108557812
 1578 0364 11E61342 		.word	1108600337
 1579 0368 118C1442 		.word	1108642833
 1580 036c F3311542 		.word	1108685299
 1581 0370 B7D71542 		.word	1108727735
 1582 0374 5D7D1642 		.word	1108770141
 1583 0378 E6221742 		.word	1108812518
 1584 037c 50C81742 		.word	1108854864
 1585 0380 9B6D1842 		.word	1108897179
 1586 0384 C9121942 		.word	1108939465
 1587 0388 D7B71942 		.word	1108981719
 1588 038c C75C1A42 		.word	1109023943
 1589 0390 99011B42 		.word	1109066137
 1590 0394 4BA61B42 		.word	1109108299
 1591 0398 DE4A1C42 		.word	1109150430
 1592 039c 52EF1C42 		.word	1109192530
 1593 03a0 A7931D42 		.word	1109234599
 1594 03a4 DC371E42 		.word	1109276636
 1595 03a8 F2DB1E42 		.word	1109318642
 1596 03ac E87F1F42 		.word	1109360616
 1597 03b0 BE232042 		.word	1109402558
 1598 03b4 74C72042 		.word	1109444468
 1599 03b8 0A6B2142 		.word	1109486346
 1600 03bc 800E2242 		.word	1109528192
 1601 03c0 D5B12242 		.word	1109570005
 1602 03c4 0A552342 		.word	1109611786
ARM GAS  C:\Users\28212\AppData\Local\Temp\cc7dq27q.s 			page 37


 1603 03c8 1EF82342 		.word	1109653534
 1604 03cc 129B2442 		.word	1109695250
 1605 03d0 E53D2542 		.word	1109736933
 1606 03d4 97E02542 		.word	1109778583
 1607 03d8 27832642 		.word	1109820199
 1608 03dc 97252742 		.word	1109861783
 1609 03e0 E5C72742 		.word	1109903333
 1610 03e4 116A2842 		.word	1109944849
 1611 03e8 1C0C2942 		.word	1109986332
 1612 03ec 05AE2942 		.word	1110027781
 1613 03f0 CD4F2A42 		.word	1110069197
 1614 03f4 72F12A42 		.word	1110110578
 1615 03f8 F5922B42 		.word	1110151925
 1616 03fc 56342C42 		.word	1110193238
 1617 0400 95D52C42 		.word	1110234517
 1618 0404 B1762D42 		.word	1110275761
 1619 0408 AA172E42 		.word	1110316970
 1620 040c 81B82E42 		.word	1110358145
 1621 0410 35592F42 		.word	1110399285
 1622 0414 C5F92F42 		.word	1110440389
 1623 0418 339A3042 		.word	1110481459
 1624 041c 7D3A3142 		.word	1110522493
 1625 0420 A4DA3142 		.word	1110563492
 1626 0424 A87A3242 		.word	1110604456
 1627 0428 881A3342 		.word	1110645384
 1628 042c 44BA3342 		.word	1110686276
 1629 0430 DC593442 		.word	1110727132
 1630 0434 50F93442 		.word	1110767952
 1631 0438 A1983542 		.word	1110808737
 1632 043c CC373642 		.word	1110849484
 1633 0440 D4D63642 		.word	1110890196
 1634 0444 B7753742 		.word	1110930871
 1635 0448 75143842 		.word	1110971509
 1636 044c 0FB33842 		.word	1111012111
 1637 0450 84513942 		.word	1111052676
 1638 0454 D3EF3942 		.word	1111093203
 1639 0458 FE8D3A42 		.word	1111133694
 1640 045c 032C3B42 		.word	1111174147
 1641 0460 E3C93B42 		.word	1111214563
 1642 0464 9E673C42 		.word	1111254942
 1643 0468 33053D42 		.word	1111295283
 1644 046c A2A23D42 		.word	1111335586
 1645 0470 EB3F3E42 		.word	1111375851
 1646 0474 0FDD3E42 		.word	1111416079
 1647 0478 0C7A3F42 		.word	1111456268
 1648 047c E3164042 		.word	1111496419
 1649 0480 94B34042 		.word	1111536532
 1650 0484 1E504142 		.word	1111576606
 1651 0488 81EC4142 		.word	1111616641
 1652 048c BE884242 		.word	1111656638
 1653 0490 D4244342 		.word	1111696596
 1654 0494 C3C04342 		.word	1111736515
 1655 0498 8B5C4442 		.word	1111776395
 1656 049c 2CF84442 		.word	1111816236
 1657 04a0 A6934542 		.word	1111856038
 1658 04a4 F82E4642 		.word	1111895800
 1659 04a8 22CA4642 		.word	1111935522
ARM GAS  C:\Users\28212\AppData\Local\Temp\cc7dq27q.s 			page 38


 1660 04ac 25654742 		.word	1111975205
 1661 04b0 00004842 		.word	1112014848
 1662 04b4 B39A4842 		.word	1112054451
 1663 04b8 3E354942 		.word	1112094014
 1664 04bc A1CF4942 		.word	1112133537
 1665 04c0 DC694A42 		.word	1112173020
 1666 04c4 EE034B42 		.word	1112212462
 1667 04c8 D79D4B42 		.word	1112251863
 1668 04cc 98374C42 		.word	1112291224
 1669 04d0 30D14C42 		.word	1112330544
 1670 04d4 A06A4D42 		.word	1112369824
 1671 04d8 E6034E42 		.word	1112409062
 1672 04dc 039D4E42 		.word	1112448259
 1673 04e0 F7354F42 		.word	1112487415
 1674 04e4 C2CE4F42 		.word	1112526530
 1675 04e8 63675042 		.word	1112565603
 1676 04ec DAFF5042 		.word	1112604634
 1677 04f0 28985142 		.word	1112643624
 1678 04f4 4C305242 		.word	1112682572
 1679 04f8 46C85242 		.word	1112721478
 1680 04fc 16605342 		.word	1112760342
 1681 0500 BCF75342 		.word	1112799164
 1682 0504 378F5442 		.word	1112837943
 1683 0508 88265542 		.word	1112876680
 1684 050c AEBD5542 		.word	1112915374
 1685 0510 AA545642 		.word	1112954026
 1686 0514 7BEB5642 		.word	1112992635
 1687 0518 21825742 		.word	1113031201
 1688 051c 9C185842 		.word	1113069724
 1689 0520 ECAE5842 		.word	1113108204
 1690 0524 10455942 		.word	1113146640
 1691 0528 0ADB5942 		.word	1113185034
 1692 052c D7705A42 		.word	1113223383
 1693 0530 79065B42 		.word	1113261689
 1694 0534 F09B5B42 		.word	1113299952
 1695 0538 3A315C42 		.word	1113338170
 1696 053c 59C65C42 		.word	1113376345
 1697 0540 4B5B5D42 		.word	1113414475
 1698 0544 12F05D42 		.word	1113452562
 1699 0548 AC845E42 		.word	1113490604
 1700 054c 19195F42 		.word	1113528601
 1701 0550 5AAD5F42 		.word	1113566554
 1702 0554 6F416042 		.word	1113604463
 1703 0558 57D56042 		.word	1113642327
 1704 055c 11696142 		.word	1113680145
 1705 0560 9FFC6142 		.word	1113717919
 1706 0564 00906242 		.word	1113755648
 1707 0568 33236342 		.word	1113793331
 1708 056c 39B66342 		.word	1113830969
 1709 0570 12496442 		.word	1113868562
 1710 0574 BDDB6442 		.word	1113906109
 1711 0578 3A6E6542 		.word	1113943610
 1712 057c 8A006642 		.word	1113981066
 1713 0580 AB926642 		.word	1114018475
 1714 0584 9F246742 		.word	1114055839
 1715 0588 64B66742 		.word	1114093156
 1716 058c FC476842 		.word	1114130428
ARM GAS  C:\Users\28212\AppData\Local\Temp\cc7dq27q.s 			page 39


 1717 0590 64D96842 		.word	1114167652
 1718 0594 9F6A6942 		.word	1114204831
 1719 0598 AAFB6942 		.word	1114241962
 1720 059c 888C6A42 		.word	1114279048
 1721 05a0 361D6B42 		.word	1114316086
 1722 05a4 B5AD6B42 		.word	1114353077
 1723 05a8 053E6C42 		.word	1114390021
 1724 05ac 26CE6C42 		.word	1114426918
 1725 05b0 185E6D42 		.word	1114463768
 1726 05b4 DAED6D42 		.word	1114500570
 1727 05b8 6D7D6E42 		.word	1114537325
 1728 05bc D10C6F42 		.word	1114574033
 1729 05c0 049C6F42 		.word	1114610692
 1730 05c4 082B7042 		.word	1114647304
 1731 05c8 DCB97042 		.word	1114683868
 1732 05cc 7F487142 		.word	1114720383
 1733 05d0 F3D67142 		.word	1114756851
 1734 05d4 36657242 		.word	1114793270
 1735 05d8 49F37242 		.word	1114829641
 1736 05dc 2C817342 		.word	1114865964
 1737 05e0 DD0E7442 		.word	1114902237
 1738 05e4 5E9C7442 		.word	1114938462
 1739 05e8 AF297542 		.word	1114974639
 1740 05ec CEB67542 		.word	1115010766
 1741 05f0 BC437642 		.word	1115046844
 1742 05f4 79D07642 		.word	1115082873
 1743 05f8 055D7742 		.word	1115118853
 1744 05fc 5FE97742 		.word	1115154783
 1745 0600 88757842 		.word	1115190664
 1746 0604 80017942 		.word	1115226496
 1747 0608 458D7942 		.word	1115262277
 1748 060c D9187A42 		.word	1115298009
 1749 0610 3BA47A42 		.word	1115333691
 1750 0614 6B2F7B42 		.word	1115369323
 1751 0618 68BA7B42 		.word	1115404904
 1752 061c 34457C42 		.word	1115440436
 1753 0620 CDCF7C42 		.word	1115475917
 1754 0624 345A7D42 		.word	1115511348
 1755 0628 68E47D42 		.word	1115546728
 1756 062c 696E7E42 		.word	1115582057
 1757 0630 37F87E42 		.word	1115617335
 1758 0634 D3817F42 		.word	1115652563
 1759 0638 9E058042 		.word	1115686302
 1760 063c 394A8042 		.word	1115703865
 1761 0640 BA8E8042 		.word	1115721402
 1762 0644 21D38042 		.word	1115738913
 1763 0648 6F178142 		.word	1115756399
 1764 064c A35B8142 		.word	1115773859
 1765 0650 BD9F8142 		.word	1115791293
 1766 0654 BDE38142 		.word	1115808701
 1767 0658 A4278242 		.word	1115826084
 1768 065c 706B8242 		.word	1115843440
 1769 0660 23AF8242 		.word	1115860771
 1770 0664 BBF28242 		.word	1115878075
 1771 0668 39368342 		.word	1115895353
 1772 066c 9D798342 		.word	1115912605
 1773 0670 E6BC8342 		.word	1115929830
ARM GAS  C:\Users\28212\AppData\Local\Temp\cc7dq27q.s 			page 40


 1774 0674 16008442 		.word	1115947030
 1775 0678 2B438442 		.word	1115964203
 1776 067c 25868442 		.word	1115981349
 1777 0680 06C98442 		.word	1115998470
 1778 0684 CB0B8542 		.word	1116015563
 1779 0688 764E8542 		.word	1116032630
 1780 068c 07918542 		.word	1116049671
 1781 0690 7DD38542 		.word	1116066685
 1782 0694 D8158642 		.word	1116083672
 1783 0698 18588642 		.word	1116100632
 1784 069c 3E9A8642 		.word	1116117566
 1785 06a0 48DC8642 		.word	1116134472
 1786 06a4 381E8742 		.word	1116151352
 1787 06a8 0D608742 		.word	1116168205
 1788 06ac C6A18742 		.word	1116185030
 1789 06b0 65E38742 		.word	1116201829
 1790 06b4 E9248842 		.word	1116218601
 1791 06b8 51668842 		.word	1116235345
 1792 06bc 9EA78842 		.word	1116252062
 1793 06c0 D0E88842 		.word	1116268752
 1794 06c4 E6298942 		.word	1116285414
 1795 06c8 E16A8942 		.word	1116302049
 1796 06cc C1AB8942 		.word	1116318657
 1797 06d0 85EC8942 		.word	1116335237
 1798 06d4 2E2D8A42 		.word	1116351790
 1799 06d8 BB6D8A42 		.word	1116368315
 1800 06dc 2CAE8A42 		.word	1116384812
 1801 06e0 82EE8A42 		.word	1116401282
 1802 06e4 BC2E8B42 		.word	1116417724
 1803 06e8 DA6E8B42 		.word	1116434138
 1804 06ec DDAE8B42 		.word	1116450525
 1805 06f0 C3EE8B42 		.word	1116466883
 1806 06f4 8E2E8C42 		.word	1116483214
 1807 06f8 3C6E8C42 		.word	1116499516
 1808 06fc CFAD8C42 		.word	1116515791
 1809 0700 46ED8C42 		.word	1116532038
 1810 0704 A02C8D42 		.word	1116548256
 1811 0708 DE6B8D42 		.word	1116564446
 1812 070c 00AB8D42 		.word	1116580608
 1813 0710 06EA8D42 		.word	1116596742
 1814 0714 EF288E42 		.word	1116612847
 1815 0718 BC678E42 		.word	1116628924
 1816 071c 6CA68E42 		.word	1116644972
 1817 0720 00E58E42 		.word	1116660992
 1818 0724 78238F42 		.word	1116676984
 1819 0728 D3618F42 		.word	1116692947
 1820 072c 11A08F42 		.word	1116708881
 1821 0730 33DE8F42 		.word	1116724787
 1822 0734 381C9042 		.word	1116740664
 1823 0738 205A9042 		.word	1116756512
 1824 073c EB979042 		.word	1116772331
 1825 0740 99D59042 		.word	1116788121
 1826 0744 2B139142 		.word	1116803883
 1827 0748 A0509142 		.word	1116819616
 1828 074c F78D9142 		.word	1116835319
 1829 0750 32CB9142 		.word	1116850994
 1830 0754 4F089242 		.word	1116866639
ARM GAS  C:\Users\28212\AppData\Local\Temp\cc7dq27q.s 			page 41


 1831 0758 4F459242 		.word	1116882255
 1832 075c 32829242 		.word	1116897842
 1833 0760 F8BE9242 		.word	1116913400
 1834 0764 A1FB9242 		.word	1116928929
 1835 0768 2C389342 		.word	1116944428
 1836 076c 9A749342 		.word	1116959898
 1837 0770 EAB09342 		.word	1116975338
 1838 0774 1DED9342 		.word	1116990749
 1839 0778 32299442 		.word	1117006130
 1840 077c 2A659442 		.word	1117021482
 1841 0780 04A19442 		.word	1117036804
 1842 0784 C0DC9442 		.word	1117052096
 1843 0788 5F189542 		.word	1117067359
 1844 078c E0539542 		.word	1117082592
 1845 0790 438F9542 		.word	1117097795
 1846 0794 88CA9542 		.word	1117112968
 1847 0798 B0059642 		.word	1117128112
 1848 079c B9409642 		.word	1117143225
 1849 07a0 A57B9642 		.word	1117158309
 1850 07a4 72B69642 		.word	1117173362
 1851 07a8 21F19642 		.word	1117188385
 1852 07ac B32B9742 		.word	1117203379
 1853 07b0 26669742 		.word	1117218342
 1854 07b4 7AA09742 		.word	1117233274
 1855 07b8 B1DA9742 		.word	1117248177
 1856 07bc C9149842 		.word	1117263049
 1857 07c0 C34E9842 		.word	1117277891
 1858 07c4 9E889842 		.word	1117292702
 1859 07c8 5BC29842 		.word	1117307483
 1860 07cc FAFB9842 		.word	1117322234
 1861 07d0 7A359942 		.word	1117336954
 1862 07d4 DB6E9942 		.word	1117351643
 1863 07d8 1EA89942 		.word	1117366302
 1864 07dc 42E19942 		.word	1117380930
 1865 07e0 471A9A42 		.word	1117395527
 1866 07e4 2E539A42 		.word	1117410094
 1867 07e8 F58B9A42 		.word	1117424629
 1868 07ec 9EC49A42 		.word	1117439134
 1869 07f0 28FD9A42 		.word	1117453608
 1870 07f4 93359B42 		.word	1117468051
 1871 07f8 E06D9B42 		.word	1117482464
 1872 07fc 0DA69B42 		.word	1117496845
 1873 0800 1BDE9B42 		.word	1117511195
 1874 0804 09169C42 		.word	1117525513
 1875 0808 D94D9C42 		.word	1117539801
 1876 080c 8A859C42 		.word	1117554058
 1877 0810 1BBD9C42 		.word	1117568283
 1878 0814 8DF49C42 		.word	1117582477
 1879 0818 DF2B9D42 		.word	1117596639
 1880 081c 13639D42 		.word	1117610771
 1881 0820 279A9D42 		.word	1117624871
 1882 0824 1BD19D42 		.word	1117638939
 1883 0828 F0079E42 		.word	1117652976
 1884 082c A53E9E42 		.word	1117666981
 1885 0830 3B759E42 		.word	1117680955
 1886 0834 B1AB9E42 		.word	1117694897
 1887 0838 07E29E42 		.word	1117708807
ARM GAS  C:\Users\28212\AppData\Local\Temp\cc7dq27q.s 			page 42


 1888 083c 3E189F42 		.word	1117722686
 1889 0840 554E9F42 		.word	1117736533
 1890 0844 4C849F42 		.word	1117750348
 1891 0848 23BA9F42 		.word	1117764131
 1892 084c DBEF9F42 		.word	1117777883
 1893 0850 7225A042 		.word	1117791602
 1894 0854 EA5AA042 		.word	1117805290
 1895 0858 4190A042 		.word	1117818945
 1896 085c 79C5A042 		.word	1117832569
 1897 0860 90FAA042 		.word	1117846160
 1898 0864 872FA142 		.word	1117859719
 1899 0868 5E64A142 		.word	1117873246
 1900 086c 1599A142 		.word	1117886741
 1901 0870 ACCDA142 		.word	1117900204
 1902 0874 2202A242 		.word	1117913634
 1903 0878 7836A242 		.word	1117927032
 1904 087c AD6AA242 		.word	1117940397
 1905 0880 C29EA242 		.word	1117953730
 1906 0884 B7D2A242 		.word	1117967031
 1907 0888 8B06A342 		.word	1117980299
 1908 088c 3F3AA342 		.word	1117993535
 1909 0890 D26DA342 		.word	1118006738
 1910 0894 44A1A342 		.word	1118019908
 1911 0898 96D4A342 		.word	1118033046
 1912 089c C707A442 		.word	1118046151
 1913 08a0 D73AA442 		.word	1118059223
 1914 08a4 C66DA442 		.word	1118072262
 1915 08a8 95A0A442 		.word	1118085269
 1916 08ac 43D3A442 		.word	1118098243
 1917 08b0 D005A542 		.word	1118111184
 1918 08b4 3C38A542 		.word	1118124092
 1919 08b8 876AA542 		.word	1118136967
 1920 08bc B09CA542 		.word	1118149808
 1921 08c0 B9CEA542 		.word	1118162617
 1922 08c4 A100A642 		.word	1118175393
 1923 08c8 6832A642 		.word	1118188136
 1924 08cc 0D64A642 		.word	1118200845
 1925 08d0 9195A642 		.word	1118213521
 1926 08d4 F4C6A642 		.word	1118226164
 1927 08d8 36F8A642 		.word	1118238774
 1928 08dc 5629A742 		.word	1118251350
 1929 08e0 555AA742 		.word	1118263893
 1930 08e4 338BA742 		.word	1118276403
 1931 08e8 EFBBA742 		.word	1118288879
 1932 08ec 89ECA742 		.word	1118301321
 1933 08f0 031DA842 		.word	1118313731
 1934 08f4 5A4DA842 		.word	1118326106
 1935 08f8 907DA842 		.word	1118338448
 1936 08fc A4ADA842 		.word	1118350756
 1937 0900 97DDA842 		.word	1118363031
 1938 0904 680DA942 		.word	1118375272
 1939 0908 173DA942 		.word	1118387479
 1940 090c A46CA942 		.word	1118399652
 1941 0910 109CA942 		.word	1118411792
 1942 0914 5ACBA942 		.word	1118423898
 1943 0918 82FAA942 		.word	1118435970
 1944 091c 8729AA42 		.word	1118448007
ARM GAS  C:\Users\28212\AppData\Local\Temp\cc7dq27q.s 			page 43


 1945 0920 6B58AA42 		.word	1118460011
 1946 0924 2D87AA42 		.word	1118471981
 1947 0928 CDB5AA42 		.word	1118483917
 1948 092c 4BE4AA42 		.word	1118495819
 1949 0930 A612AB42 		.word	1118507686
 1950 0934 E040AB42 		.word	1118519520
 1951 0938 F76EAB42 		.word	1118531319
 1952 093c EC9CAB42 		.word	1118543084
 1953 0940 BFCAAB42 		.word	1118554815
 1954 0944 70F8AB42 		.word	1118566512
 1955 0948 FE25AC42 		.word	1118578174
 1956 094c 6A53AC42 		.word	1118589802
 1957 0950 B380AC42 		.word	1118601395
 1958 0954 DAADAC42 		.word	1118612954
 1959 0958 DFDAAC42 		.word	1118624479
 1960 095c C107AD42 		.word	1118635969
 1961 0960 8034AD42 		.word	1118647424
 1962 0964 1D61AD42 		.word	1118658845
 1963 0968 978DAD42 		.word	1118670231
 1964 096c EFB9AD42 		.word	1118681583
 1965 0970 24E6AD42 		.word	1118692900
 1966 0974 3612AE42 		.word	1118704182
 1967 0978 263EAE42 		.word	1118715430
 1968 097c F269AE42 		.word	1118726642
 1969 0980 9C95AE42 		.word	1118737820
 1970 0984 23C1AE42 		.word	1118748963
 1971 0988 87ECAE42 		.word	1118760071
 1972 098c C917AF42 		.word	1118771145
 1973 0990 E742AF42 		.word	1118782183
 1974 0994 E26DAF42 		.word	1118793186
 1975 0998 BA98AF42 		.word	1118804154
 1976 099c 70C3AF42 		.word	1118815088
 1977 09a0 02EEAF42 		.word	1118825986
 1978 09a4 7118B042 		.word	1118836849
 1979 09a8 BD42B042 		.word	1118847677
 1980 09ac E56CB042 		.word	1118858469
 1981 09b0 EB96B042 		.word	1118869227
 1982 09b4 CDC0B042 		.word	1118879949
 1983 09b8 8CEAB042 		.word	1118890636
 1984 09bc 2714B142 		.word	1118901287
 1985 09c0 A03DB142 		.word	1118911904
 1986 09c4 F466B142 		.word	1118922484
 1987 09c8 2690B142 		.word	1118933030
 1988 09cc 34B9B142 		.word	1118943540
 1989 09d0 1EE2B142 		.word	1118954014
 1990 09d4 E50AB242 		.word	1118964453
 1991 09d8 8933B242 		.word	1118974857
 1992 09dc 095CB242 		.word	1118985225
 1993 09e0 6584B242 		.word	1118995557
 1994 09e4 9DACB242 		.word	1119005853
 1995 09e8 B2D4B242 		.word	1119016114
 1996 09ec A4FCB242 		.word	1119026340
 1997 09f0 7124B342 		.word	1119036529
 1998 09f4 1B4CB342 		.word	1119046683
 1999 09f8 A173B342 		.word	1119056801
 2000 09fc 039BB342 		.word	1119066883
 2001 0a00 41C2B342 		.word	1119076929
ARM GAS  C:\Users\28212\AppData\Local\Temp\cc7dq27q.s 			page 44


 2002 0a04 5CE9B342 		.word	1119086940
 2003 0a08 5210B442 		.word	1119096914
 2004 0a0c 2537B442 		.word	1119106853
 2005 0a10 D35DB442 		.word	1119116755
 2006 0a14 5E84B442 		.word	1119126622
 2007 0a18 C4AAB442 		.word	1119136452
 2008 0a1c 07D1B442 		.word	1119146247
 2009 0a20 25F7B442 		.word	1119156005
 2010 0a24 1F1DB542 		.word	1119165727
 2011 0a28 F542B542 		.word	1119175413
 2012 0a2c A768B542 		.word	1119185063
 2013 0a30 358EB542 		.word	1119194677
 2014 0a34 9EB3B542 		.word	1119204254
 2015 0a38 E4D8B542 		.word	1119213796
 2016 0a3c 04FEB542 		.word	1119223300
 2017 0a40 0123B642 		.word	1119232769
 2018 0a44 D947B642 		.word	1119242201
 2019 0a48 8D6CB642 		.word	1119251597
 2020 0a4c 1C91B642 		.word	1119260956
 2021 0a50 87B5B642 		.word	1119270279
 2022 0a54 CDD9B642 		.word	1119279565
 2023 0a58 EFFDB642 		.word	1119288815
 2024 0a5c ED21B742 		.word	1119298029
 2025 0a60 C645B742 		.word	1119307206
 2026 0a64 7A69B742 		.word	1119316346
 2027 0a68 098DB742 		.word	1119325449
 2028 0a6c 74B0B742 		.word	1119334516
 2029 0a70 BBD3B742 		.word	1119343547
 2030 0a74 DCF6B742 		.word	1119352540
 2031 0a78 D919B842 		.word	1119361497
 2032 0a7c B13CB842 		.word	1119370417
 2033 0a80 655FB842 		.word	1119379301
 2034 0a84 F381B842 		.word	1119388147
 2035 0a88 5DA4B842 		.word	1119396957
 2036 0a8c A2C6B842 		.word	1119405730
 2037 0a90 C2E8B842 		.word	1119414466
 2038 0a94 BD0AB942 		.word	1119423165
 2039 0a98 932CB942 		.word	1119431827
 2040 0a9c 444EB942 		.word	1119440452
 2041 0aa0 D06FB942 		.word	1119449040
 2042 0aa4 3791B942 		.word	1119457591
 2043 0aa8 79B2B942 		.word	1119466105
 2044 0aac 96D3B942 		.word	1119474582
 2045 0ab0 8EF4B942 		.word	1119483022
 2046 0ab4 6115BA42 		.word	1119491425
 2047 0ab8 0F36BA42 		.word	1119499791
 2048 0abc 9756BA42 		.word	1119508119
 2049 0ac0 FB76BA42 		.word	1119516411
 2050 0ac4 3997BA42 		.word	1119524665
 2051 0ac8 51B7BA42 		.word	1119532881
 2052 0acc 45D7BA42 		.word	1119541061
 2053 0ad0 13F7BA42 		.word	1119549203
 2054 0ad4 BC16BB42 		.word	1119557308
 2055 0ad8 4036BB42 		.word	1119565376
 2056 0adc 9E55BB42 		.word	1119573406
 2057 0ae0 D674BB42 		.word	1119581398
 2058 0ae4 EA93BB42 		.word	1119589354
ARM GAS  C:\Users\28212\AppData\Local\Temp\cc7dq27q.s 			page 45


 2059 0ae8 D8B2BB42 		.word	1119597272
 2060 0aec A0D1BB42 		.word	1119605152
 2061 0af0 43F0BB42 		.word	1119612995
 2062 0af4 C10EBC42 		.word	1119620801
 2063 0af8 182DBC42 		.word	1119628568
 2064 0afc 4B4BBC42 		.word	1119636299
 2065 0b00 5769BC42 		.word	1119643991
 2066 0b04 3F87BC42 		.word	1119651647
 2067 0b08 00A5BC42 		.word	1119659264
 2068 0b0c 9CC2BC42 		.word	1119666844
 2069 0b10 12E0BC42 		.word	1119674386
 2070 0b14 62FDBC42 		.word	1119681890
 2071 0b18 8D1ABD42 		.word	1119689357
 2072 0b1c 9237BD42 		.word	1119696786
 2073 0b20 7154BD42 		.word	1119704177
 2074 0b24 2B71BD42 		.word	1119711531
 2075 0b28 BE8DBD42 		.word	1119718846
 2076 0b2c 2CAABD42 		.word	1119726124
 2077 0b30 74C6BD42 		.word	1119733364
 2078 0b34 96E2BD42 		.word	1119740566
 2079 0b38 92FEBD42 		.word	1119747730
 2080 0b3c 681ABE42 		.word	1119754856
 2081 0b40 1836BE42 		.word	1119761944
 2082 0b44 A251BE42 		.word	1119768994
 2083 0b48 066DBE42 		.word	1119776006
 2084 0b4c 4588BE42 		.word	1119782981
 2085 0b50 5DA3BE42 		.word	1119789917
 2086 0b54 4FBEBE42 		.word	1119796815
 2087 0b58 1BD9BE42 		.word	1119803675
 2088 0b5c C1F3BE42 		.word	1119810497
 2089 0b60 410EBF42 		.word	1119817281
 2090 0b64 9A28BF42 		.word	1119824026
 2091 0b68 CE42BF42 		.word	1119830734
 2092 0b6c DB5CBF42 		.word	1119837403
 2093 0b70 C276BF42 		.word	1119844034
 2094 0b74 8390BF42 		.word	1119850627
 2095 0b78 1EAABF42 		.word	1119857182
 2096 0b7c 92C3BF42 		.word	1119863698
 2097 0b80 E0DCBF42 		.word	1119870176
 2098 0b84 08F6BF42 		.word	1119876616
 2099 0b88 090FC042 		.word	1119883017
 2100 0b8c E527C042 		.word	1119889381
 2101 0b90 9940C042 		.word	1119895705
 2102 0b94 2859C042 		.word	1119901992
 2103 0b98 9071C042 		.word	1119908240
 2104 0b9c D189C042 		.word	1119914449
 2105 0ba0 ECA1C042 		.word	1119920620
 2106 0ba4 E1B9C042 		.word	1119926753
 2107 0ba8 AFD1C042 		.word	1119932847
 2108 0bac 57E9C042 		.word	1119938903
 2109 0bb0 D800C142 		.word	1119944920
 2110 0bb4 3318C142 		.word	1119950899
 2111 0bb8 672FC142 		.word	1119956839
 2112 0bbc 7546C142 		.word	1119962741
 2113 0bc0 5C5DC142 		.word	1119968604
 2114 0bc4 1C74C142 		.word	1119974428
 2115 0bc8 B68AC142 		.word	1119980214
ARM GAS  C:\Users\28212\AppData\Local\Temp\cc7dq27q.s 			page 46


 2116 0bcc 29A1C142 		.word	1119985961
 2117 0bd0 75B7C142 		.word	1119991669
 2118 0bd4 9BCDC142 		.word	1119997339
 2119 0bd8 9AE3C142 		.word	1120002970
 2120 0bdc 72F9C142 		.word	1120008562
 2121 0be0 240FC242 		.word	1120014116
 2122 0be4 AF24C242 		.word	1120019631
 2123 0be8 133AC242 		.word	1120025107
 2124 0bec 514FC242 		.word	1120030545
 2125 0bf0 6764C242 		.word	1120035943
 2126 0bf4 5779C242 		.word	1120041303
 2127 0bf8 208EC242 		.word	1120046624
 2128 0bfc C2A2C242 		.word	1120051906
 2129 0c00 3DB7C242 		.word	1120057149
 2130 0c04 92CBC242 		.word	1120062354
 2131 0c08 BFDFC242 		.word	1120067519
 2132 0c0c C6F3C242 		.word	1120072646
 2133 0c10 A607C342 		.word	1120077734
 2134 0c14 5E1BC342 		.word	1120082782
 2135 0c18 F02EC342 		.word	1120087792
 2136 0c1c 5B42C342 		.word	1120092763
 2137 0c20 9F55C342 		.word	1120097695
 2138 0c24 BC68C342 		.word	1120102588
 2139 0c28 B27BC342 		.word	1120107442
 2140 0c2c 808EC342 		.word	1120112256
 2141 0c30 28A1C342 		.word	1120117032
 2142 0c34 A9B3C342 		.word	1120121769
 2143 0c38 03C6C342 		.word	1120126467
 2144 0c3c 35D8C342 		.word	1120131125
 2145 0c40 41EAC342 		.word	1120135745
 2146 0c44 25FCC342 		.word	1120140325
 2147 0c48 E20DC442 		.word	1120144866
 2148 0c4c 781FC442 		.word	1120149368
 2149 0c50 E730C442 		.word	1120153831
 2150 0c54 2F42C442 		.word	1120158255
 2151 0c58 5053C442 		.word	1120162640
 2152 0c5c 4964C442 		.word	1120166985
 2153 0c60 1B75C442 		.word	1120171291
 2154 0c64 C685C442 		.word	1120175558
 2155 0c68 4A96C442 		.word	1120179786
 2156 0c6c A7A6C442 		.word	1120183975
 2157 0c70 DCB6C442 		.word	1120188124
 2158 0c74 EAC6C442 		.word	1120192234
 2159 0c78 D1D6C442 		.word	1120196305
 2160 0c7c 90E6C442 		.word	1120200336
 2161 0c80 28F6C442 		.word	1120204328
 2162 0c84 9905C542 		.word	1120208281
 2163 0c88 E214C542 		.word	1120212194
 2164 0c8c 0524C542 		.word	1120216069
 2165 0c90 FF32C542 		.word	1120219903
 2166 0c94 D341C542 		.word	1120223699
 2167 0c98 7F50C542 		.word	1120227455
 2168 0c9c 035FC542 		.word	1120231171
 2169 0ca0 606DC542 		.word	1120234848
 2170 0ca4 967BC542 		.word	1120238486
 2171 0ca8 A589C542 		.word	1120242085
 2172 0cac 8C97C542 		.word	1120245644
ARM GAS  C:\Users\28212\AppData\Local\Temp\cc7dq27q.s 			page 47


 2173 0cb0 4BA5C542 		.word	1120249163
 2174 0cb4 E3B2C542 		.word	1120252643
 2175 0cb8 54C0C542 		.word	1120256084
 2176 0cbc 9DCDC542 		.word	1120259485
 2177 0cc0 BEDAC542 		.word	1120262846
 2178 0cc4 B8E7C542 		.word	1120266168
 2179 0cc8 8BF4C542 		.word	1120269451
 2180 0ccc 3601C642 		.word	1120272694
 2181 0cd0 BA0DC642 		.word	1120275898
 2182 0cd4 161AC642 		.word	1120279062
 2183 0cd8 4A26C642 		.word	1120282186
 2184 0cdc 5732C642 		.word	1120285271
 2185 0ce0 3C3EC642 		.word	1120288316
 2186 0ce4 FA49C642 		.word	1120291322
 2187 0ce8 9055C642 		.word	1120294288
 2188 0cec FF60C642 		.word	1120297215
 2189 0cf0 466CC642 		.word	1120300102
 2190 0cf4 6577C642 		.word	1120302949
 2191 0cf8 5D82C642 		.word	1120305757
 2192 0cfc 2D8DC642 		.word	1120308525
 2193 0d00 D697C642 		.word	1120311254
 2194 0d04 56A2C642 		.word	1120313942
 2195 0d08 B0ACC642 		.word	1120316592
 2196 0d0c E1B6C642 		.word	1120319201
 2197 0d10 EBC0C642 		.word	1120321771
 2198 0d14 CDCAC642 		.word	1120324301
 2199 0d18 88D4C642 		.word	1120326792
 2200 0d1c 1ADEC642 		.word	1120329242
 2201 0d20 85E7C642 		.word	1120331653
 2202 0d24 C9F0C642 		.word	1120334025
 2203 0d28 E4F9C642 		.word	1120336356
 2204 0d2c D802C742 		.word	1120338648
 2205 0d30 A50BC742 		.word	1120340901
 2206 0d34 4914C742 		.word	1120343113
 2207 0d38 C61CC742 		.word	1120345286
 2208 0d3c 1B25C742 		.word	1120347419
 2209 0d40 482DC742 		.word	1120349512
 2210 0d44 4D35C742 		.word	1120351565
 2211 0d48 2B3DC742 		.word	1120353579
 2212 0d4c E144C742 		.word	1120355553
 2213 0d50 6F4CC742 		.word	1120357487
 2214 0d54 D653C742 		.word	1120359382
 2215 0d58 145BC742 		.word	1120361236
 2216 0d5c 2B62C742 		.word	1120363051
 2217 0d60 1A69C742 		.word	1120364826
 2218 0d64 E16FC742 		.word	1120366561
 2219 0d68 8076C742 		.word	1120368256
 2220 0d6c F87CC742 		.word	1120369912
 2221 0d70 4883C742 		.word	1120371528
 2222 0d74 6F89C742 		.word	1120373103
 2223 0d78 6F8FC742 		.word	1120374639
 2224 0d7c 4895C742 		.word	1120376136
 2225 0d80 F89AC742 		.word	1120377592
 2226 0d84 80A0C742 		.word	1120379008
 2227 0d88 E1A5C742 		.word	1120380385
 2228 0d8c 1AABC742 		.word	1120381722
 2229 0d90 2BB0C742 		.word	1120383019
ARM GAS  C:\Users\28212\AppData\Local\Temp\cc7dq27q.s 			page 48


 2230 0d94 14B5C742 		.word	1120384276
 2231 0d98 D5B9C742 		.word	1120385493
 2232 0d9c 6EBEC742 		.word	1120386670
 2233 0da0 E0C2C742 		.word	1120387808
 2234 0da4 29C7C742 		.word	1120388905
 2235 0da8 4BCBC742 		.word	1120389963
 2236 0dac 45CFC742 		.word	1120390981
 2237 0db0 17D3C742 		.word	1120391959
 2238 0db4 C1D6C742 		.word	1120392897
 2239 0db8 43DAC742 		.word	1120393795
 2240 0dbc 9DDDC742 		.word	1120394653
 2241 0dc0 CFE0C742 		.word	1120395471
 2242 0dc4 DAE3C742 		.word	1120396250
 2243 0dc8 BCE6C742 		.word	1120396988
 2244 0dcc 77E9C742 		.word	1120397687
 2245 0dd0 0AECC742 		.word	1120398346
 2246 0dd4 74EEC742 		.word	1120398964
 2247 0dd8 B7F0C742 		.word	1120399543
 2248 0ddc D2F2C742 		.word	1120400082
 2249 0de0 C5F4C742 		.word	1120400581
 2250 0de4 91F6C742 		.word	1120401041
 2251 0de8 34F8C742 		.word	1120401460
 2252 0dec AFF9C742 		.word	1120401839
 2253 0df0 02FBC742 		.word	1120402178
 2254 0df4 2EFCC742 		.word	1120402478
 2255 0df8 31FDC742 		.word	1120402737
 2256 0dfc 0DFEC742 		.word	1120402957
 2257 0e00 C1FEC742 		.word	1120403137
 2258 0e04 4CFFC742 		.word	1120403276
 2259 0e08 B0FFC742 		.word	1120403376
 2260 0e0c ECFFC742 		.word	1120403436
 2261 0e10 0000C842 		.word	1120403456
 2262              		.text
 2263              	.Letext0:
 2264              		.file 3 "d:\\gcc-arm-none-eabi-10.3-2021.10\\arm-none-eabi\\include\\c++\\10.3.1\\cstdint"
 2265              		.file 4 "d:\\gcc-arm-none-eabi-10.3-2021.10\\arm-none-eabi\\include\\c++\\10.3.1\\bits\\cpp_type_t
 2266              		.file 5 "d:\\gcc-arm-none-eabi-10.3-2021.10\\arm-none-eabi\\include\\c++\\10.3.1\\cmath"
 2267              		.file 6 "d:\\gcc-arm-none-eabi-10.3-2021.10\\arm-none-eabi\\include\\c++\\10.3.1\\bits\\std_abs.h"
 2268              		.file 7 "d:\\gcc-arm-none-eabi-10.3-2021.10\\arm-none-eabi\\include\\c++\\10.3.1\\arm-none-eabi\\t
 2269              		.file 8 "d:\\gcc-arm-none-eabi-10.3-2021.10\\arm-none-eabi\\include\\machine\\_default_types.h"
 2270              		.file 9 "d:\\gcc-arm-none-eabi-10.3-2021.10\\arm-none-eabi\\include\\sys\\_stdint.h"
 2271              		.file 10 "d:\\gcc-arm-none-eabi-10.3-2021.10\\arm-none-eabi\\include\\stdint.h"
 2272              		.file 11 "d:\\gcc-arm-none-eabi-10.3-2021.10\\arm-none-eabi\\include\\math.h"
 2273              		.file 12 "d:\\gcc-arm-none-eabi-10.3-2021.10\\arm-none-eabi\\include\\c++\\10.3.1\\math.h"
 2274              		.file 13 "ACE_ECF_25/Algorithm/user_maths/list_of_trigfunction.h"
 2275              		.file 14 "<built-in>"